
rtarget:     file format elf64-x86-64


Disassembly of section .init:

0000000000000d70 <_init>:
 d70:	48 83 ec 08          	sub    $0x8,%rsp
 d74:	48 8b 05 6d 42 20 00 	mov    0x20426d(%rip),%rax        # 204fe8 <__gmon_start__>
 d7b:	48 85 c0             	test   %rax,%rax
 d7e:	74 02                	je     d82 <_init+0x12>
 d80:	ff d0                	callq  *%rax
 d82:	48 83 c4 08          	add    $0x8,%rsp
 d86:	c3                   	retq   

Disassembly of section .plt:

0000000000000d90 <.plt>:
 d90:	ff 35 3a 41 20 00    	pushq  0x20413a(%rip)        # 204ed0 <_GLOBAL_OFFSET_TABLE_+0x8>
 d96:	ff 25 3c 41 20 00    	jmpq   *0x20413c(%rip)        # 204ed8 <_GLOBAL_OFFSET_TABLE_+0x10>
 d9c:	0f 1f 40 00          	nopl   0x0(%rax)

0000000000000da0 <__errno_location@plt>:
 da0:	ff 25 3a 41 20 00    	jmpq   *0x20413a(%rip)        # 204ee0 <__errno_location@GLIBC_2.2.5>
 da6:	68 00 00 00 00       	pushq  $0x0
 dab:	e9 e0 ff ff ff       	jmpq   d90 <.plt>

0000000000000db0 <srandom@plt>:
 db0:	ff 25 32 41 20 00    	jmpq   *0x204132(%rip)        # 204ee8 <srandom@GLIBC_2.2.5>
 db6:	68 01 00 00 00       	pushq  $0x1
 dbb:	e9 d0 ff ff ff       	jmpq   d90 <.plt>

0000000000000dc0 <strncmp@plt>:
 dc0:	ff 25 2a 41 20 00    	jmpq   *0x20412a(%rip)        # 204ef0 <strncmp@GLIBC_2.2.5>
 dc6:	68 02 00 00 00       	pushq  $0x2
 dcb:	e9 c0 ff ff ff       	jmpq   d90 <.plt>

0000000000000dd0 <strcpy@plt>:
 dd0:	ff 25 22 41 20 00    	jmpq   *0x204122(%rip)        # 204ef8 <strcpy@GLIBC_2.2.5>
 dd6:	68 03 00 00 00       	pushq  $0x3
 ddb:	e9 b0 ff ff ff       	jmpq   d90 <.plt>

0000000000000de0 <puts@plt>:
 de0:	ff 25 1a 41 20 00    	jmpq   *0x20411a(%rip)        # 204f00 <puts@GLIBC_2.2.5>
 de6:	68 04 00 00 00       	pushq  $0x4
 deb:	e9 a0 ff ff ff       	jmpq   d90 <.plt>

0000000000000df0 <write@plt>:
 df0:	ff 25 12 41 20 00    	jmpq   *0x204112(%rip)        # 204f08 <write@GLIBC_2.2.5>
 df6:	68 05 00 00 00       	pushq  $0x5
 dfb:	e9 90 ff ff ff       	jmpq   d90 <.plt>

0000000000000e00 <__stack_chk_fail@plt>:
 e00:	ff 25 0a 41 20 00    	jmpq   *0x20410a(%rip)        # 204f10 <__stack_chk_fail@GLIBC_2.4>
 e06:	68 06 00 00 00       	pushq  $0x6
 e0b:	e9 80 ff ff ff       	jmpq   d90 <.plt>

0000000000000e10 <mmap@plt>:
 e10:	ff 25 02 41 20 00    	jmpq   *0x204102(%rip)        # 204f18 <mmap@GLIBC_2.2.5>
 e16:	68 07 00 00 00       	pushq  $0x7
 e1b:	e9 70 ff ff ff       	jmpq   d90 <.plt>

0000000000000e20 <memset@plt>:
 e20:	ff 25 fa 40 20 00    	jmpq   *0x2040fa(%rip)        # 204f20 <memset@GLIBC_2.2.5>
 e26:	68 08 00 00 00       	pushq  $0x8
 e2b:	e9 60 ff ff ff       	jmpq   d90 <.plt>

0000000000000e30 <alarm@plt>:
 e30:	ff 25 f2 40 20 00    	jmpq   *0x2040f2(%rip)        # 204f28 <alarm@GLIBC_2.2.5>
 e36:	68 09 00 00 00       	pushq  $0x9
 e3b:	e9 50 ff ff ff       	jmpq   d90 <.plt>

0000000000000e40 <close@plt>:
 e40:	ff 25 ea 40 20 00    	jmpq   *0x2040ea(%rip)        # 204f30 <close@GLIBC_2.2.5>
 e46:	68 0a 00 00 00       	pushq  $0xa
 e4b:	e9 40 ff ff ff       	jmpq   d90 <.plt>

0000000000000e50 <read@plt>:
 e50:	ff 25 e2 40 20 00    	jmpq   *0x2040e2(%rip)        # 204f38 <read@GLIBC_2.2.5>
 e56:	68 0b 00 00 00       	pushq  $0xb
 e5b:	e9 30 ff ff ff       	jmpq   d90 <.plt>

0000000000000e60 <signal@plt>:
 e60:	ff 25 da 40 20 00    	jmpq   *0x2040da(%rip)        # 204f40 <signal@GLIBC_2.2.5>
 e66:	68 0c 00 00 00       	pushq  $0xc
 e6b:	e9 20 ff ff ff       	jmpq   d90 <.plt>

0000000000000e70 <gethostbyname@plt>:
 e70:	ff 25 d2 40 20 00    	jmpq   *0x2040d2(%rip)        # 204f48 <gethostbyname@GLIBC_2.2.5>
 e76:	68 0d 00 00 00       	pushq  $0xd
 e7b:	e9 10 ff ff ff       	jmpq   d90 <.plt>

0000000000000e80 <__memmove_chk@plt>:
 e80:	ff 25 ca 40 20 00    	jmpq   *0x2040ca(%rip)        # 204f50 <__memmove_chk@GLIBC_2.3.4>
 e86:	68 0e 00 00 00       	pushq  $0xe
 e8b:	e9 00 ff ff ff       	jmpq   d90 <.plt>

0000000000000e90 <strtol@plt>:
 e90:	ff 25 c2 40 20 00    	jmpq   *0x2040c2(%rip)        # 204f58 <strtol@GLIBC_2.2.5>
 e96:	68 0f 00 00 00       	pushq  $0xf
 e9b:	e9 f0 fe ff ff       	jmpq   d90 <.plt>

0000000000000ea0 <memcpy@plt>:
 ea0:	ff 25 ba 40 20 00    	jmpq   *0x2040ba(%rip)        # 204f60 <memcpy@GLIBC_2.14>
 ea6:	68 10 00 00 00       	pushq  $0x10
 eab:	e9 e0 fe ff ff       	jmpq   d90 <.plt>

0000000000000eb0 <time@plt>:
 eb0:	ff 25 b2 40 20 00    	jmpq   *0x2040b2(%rip)        # 204f68 <time@GLIBC_2.2.5>
 eb6:	68 11 00 00 00       	pushq  $0x11
 ebb:	e9 d0 fe ff ff       	jmpq   d90 <.plt>

0000000000000ec0 <random@plt>:
 ec0:	ff 25 aa 40 20 00    	jmpq   *0x2040aa(%rip)        # 204f70 <random@GLIBC_2.2.5>
 ec6:	68 12 00 00 00       	pushq  $0x12
 ecb:	e9 c0 fe ff ff       	jmpq   d90 <.plt>

0000000000000ed0 <_IO_getc@plt>:
 ed0:	ff 25 a2 40 20 00    	jmpq   *0x2040a2(%rip)        # 204f78 <_IO_getc@GLIBC_2.2.5>
 ed6:	68 13 00 00 00       	pushq  $0x13
 edb:	e9 b0 fe ff ff       	jmpq   d90 <.plt>

0000000000000ee0 <__isoc99_sscanf@plt>:
 ee0:	ff 25 9a 40 20 00    	jmpq   *0x20409a(%rip)        # 204f80 <__isoc99_sscanf@GLIBC_2.7>
 ee6:	68 14 00 00 00       	pushq  $0x14
 eeb:	e9 a0 fe ff ff       	jmpq   d90 <.plt>

0000000000000ef0 <munmap@plt>:
 ef0:	ff 25 92 40 20 00    	jmpq   *0x204092(%rip)        # 204f88 <munmap@GLIBC_2.2.5>
 ef6:	68 15 00 00 00       	pushq  $0x15
 efb:	e9 90 fe ff ff       	jmpq   d90 <.plt>

0000000000000f00 <__printf_chk@plt>:
 f00:	ff 25 8a 40 20 00    	jmpq   *0x20408a(%rip)        # 204f90 <__printf_chk@GLIBC_2.3.4>
 f06:	68 16 00 00 00       	pushq  $0x16
 f0b:	e9 80 fe ff ff       	jmpq   d90 <.plt>

0000000000000f10 <fopen@plt>:
 f10:	ff 25 82 40 20 00    	jmpq   *0x204082(%rip)        # 204f98 <fopen@GLIBC_2.2.5>
 f16:	68 17 00 00 00       	pushq  $0x17
 f1b:	e9 70 fe ff ff       	jmpq   d90 <.plt>

0000000000000f20 <getopt@plt>:
 f20:	ff 25 7a 40 20 00    	jmpq   *0x20407a(%rip)        # 204fa0 <getopt@GLIBC_2.2.5>
 f26:	68 18 00 00 00       	pushq  $0x18
 f2b:	e9 60 fe ff ff       	jmpq   d90 <.plt>

0000000000000f30 <gethostname@plt>:
 f30:	ff 25 72 40 20 00    	jmpq   *0x204072(%rip)        # 204fa8 <gethostname@GLIBC_2.2.5>
 f36:	68 19 00 00 00       	pushq  $0x19
 f3b:	e9 50 fe ff ff       	jmpq   d90 <.plt>

0000000000000f40 <exit@plt>:
 f40:	ff 25 6a 40 20 00    	jmpq   *0x20406a(%rip)        # 204fb0 <exit@GLIBC_2.2.5>
 f46:	68 1a 00 00 00       	pushq  $0x1a
 f4b:	e9 40 fe ff ff       	jmpq   d90 <.plt>

0000000000000f50 <connect@plt>:
 f50:	ff 25 62 40 20 00    	jmpq   *0x204062(%rip)        # 204fb8 <connect@GLIBC_2.2.5>
 f56:	68 1b 00 00 00       	pushq  $0x1b
 f5b:	e9 30 fe ff ff       	jmpq   d90 <.plt>

0000000000000f60 <__fprintf_chk@plt>:
 f60:	ff 25 5a 40 20 00    	jmpq   *0x20405a(%rip)        # 204fc0 <__fprintf_chk@GLIBC_2.3.4>
 f66:	68 1c 00 00 00       	pushq  $0x1c
 f6b:	e9 20 fe ff ff       	jmpq   d90 <.plt>

0000000000000f70 <__sprintf_chk@plt>:
 f70:	ff 25 52 40 20 00    	jmpq   *0x204052(%rip)        # 204fc8 <__sprintf_chk@GLIBC_2.3.4>
 f76:	68 1d 00 00 00       	pushq  $0x1d
 f7b:	e9 10 fe ff ff       	jmpq   d90 <.plt>

0000000000000f80 <socket@plt>:
 f80:	ff 25 4a 40 20 00    	jmpq   *0x20404a(%rip)        # 204fd0 <socket@GLIBC_2.2.5>
 f86:	68 1e 00 00 00       	pushq  $0x1e
 f8b:	e9 00 fe ff ff       	jmpq   d90 <.plt>

Disassembly of section .plt.got:

0000000000000f90 <__cxa_finalize@plt>:
 f90:	ff 25 62 40 20 00    	jmpq   *0x204062(%rip)        # 204ff8 <__cxa_finalize@GLIBC_2.2.5>
 f96:	66 90                	xchg   %ax,%ax

Disassembly of section .text:

0000000000000fa0 <_start>:
     fa0:	31 ed                	xor    %ebp,%ebp
     fa2:	49 89 d1             	mov    %rdx,%r9
     fa5:	5e                   	pop    %rsi
     fa6:	48 89 e2             	mov    %rsp,%rdx
     fa9:	48 83 e4 f0          	and    $0xfffffffffffffff0,%rsp
     fad:	50                   	push   %rax
     fae:	54                   	push   %rsp
     faf:	4c 8d 05 aa 21 00 00 	lea    0x21aa(%rip),%r8        # 3160 <__libc_csu_fini>
     fb6:	48 8d 0d 33 21 00 00 	lea    0x2133(%rip),%rcx        # 30f0 <__libc_csu_init>
     fbd:	48 8d 3d b5 02 00 00 	lea    0x2b5(%rip),%rdi        # 1279 <main>
     fc4:	ff 15 16 40 20 00    	callq  *0x204016(%rip)        # 204fe0 <__libc_start_main@GLIBC_2.2.5>
     fca:	f4                   	hlt    
     fcb:	0f 1f 44 00 00       	nopl   0x0(%rax,%rax,1)

0000000000000fd0 <deregister_tm_clones>:
     fd0:	48 8d 3d 99 43 20 00 	lea    0x204399(%rip),%rdi        # 205370 <__TMC_END__>
     fd7:	55                   	push   %rbp
     fd8:	48 8d 05 91 43 20 00 	lea    0x204391(%rip),%rax        # 205370 <__TMC_END__>
     fdf:	48 39 f8             	cmp    %rdi,%rax
     fe2:	48 89 e5             	mov    %rsp,%rbp
     fe5:	74 19                	je     1000 <deregister_tm_clones+0x30>
     fe7:	48 8b 05 ea 3f 20 00 	mov    0x203fea(%rip),%rax        # 204fd8 <_ITM_deregisterTMCloneTable>
     fee:	48 85 c0             	test   %rax,%rax
     ff1:	74 0d                	je     1000 <deregister_tm_clones+0x30>
     ff3:	5d                   	pop    %rbp
     ff4:	ff e0                	jmpq   *%rax
     ff6:	66 2e 0f 1f 84 00 00 	nopw   %cs:0x0(%rax,%rax,1)
     ffd:	00 00 00 
    1000:	5d                   	pop    %rbp
    1001:	c3                   	retq   
    1002:	0f 1f 40 00          	nopl   0x0(%rax)
    1006:	66 2e 0f 1f 84 00 00 	nopw   %cs:0x0(%rax,%rax,1)
    100d:	00 00 00 

0000000000001010 <register_tm_clones>:
    1010:	48 8d 3d 59 43 20 00 	lea    0x204359(%rip),%rdi        # 205370 <__TMC_END__>
    1017:	48 8d 35 52 43 20 00 	lea    0x204352(%rip),%rsi        # 205370 <__TMC_END__>
    101e:	55                   	push   %rbp
    101f:	48 29 fe             	sub    %rdi,%rsi
    1022:	48 89 e5             	mov    %rsp,%rbp
    1025:	48 c1 fe 03          	sar    $0x3,%rsi
    1029:	48 89 f0             	mov    %rsi,%rax
    102c:	48 c1 e8 3f          	shr    $0x3f,%rax
    1030:	48 01 c6             	add    %rax,%rsi
    1033:	48 d1 fe             	sar    %rsi
    1036:	74 18                	je     1050 <register_tm_clones+0x40>
    1038:	48 8b 05 b1 3f 20 00 	mov    0x203fb1(%rip),%rax        # 204ff0 <_ITM_registerTMCloneTable>
    103f:	48 85 c0             	test   %rax,%rax
    1042:	74 0c                	je     1050 <register_tm_clones+0x40>
    1044:	5d                   	pop    %rbp
    1045:	ff e0                	jmpq   *%rax
    1047:	66 0f 1f 84 00 00 00 	nopw   0x0(%rax,%rax,1)
    104e:	00 00 
    1050:	5d                   	pop    %rbp
    1051:	c3                   	retq   
    1052:	0f 1f 40 00          	nopl   0x0(%rax)
    1056:	66 2e 0f 1f 84 00 00 	nopw   %cs:0x0(%rax,%rax,1)
    105d:	00 00 00 

0000000000001060 <__do_global_dtors_aux>:
    1060:	80 3d 41 43 20 00 00 	cmpb   $0x0,0x204341(%rip)        # 2053a8 <completed.7697>
    1067:	75 2f                	jne    1098 <__do_global_dtors_aux+0x38>
    1069:	48 83 3d 87 3f 20 00 	cmpq   $0x0,0x203f87(%rip)        # 204ff8 <__cxa_finalize@GLIBC_2.2.5>
    1070:	00 
    1071:	55                   	push   %rbp
    1072:	48 89 e5             	mov    %rsp,%rbp
    1075:	74 0c                	je     1083 <__do_global_dtors_aux+0x23>
    1077:	48 8b 3d 8a 3f 20 00 	mov    0x203f8a(%rip),%rdi        # 205008 <__dso_handle>
    107e:	e8 0d ff ff ff       	callq  f90 <__cxa_finalize@plt>
    1083:	e8 48 ff ff ff       	callq  fd0 <deregister_tm_clones>
    1088:	c6 05 19 43 20 00 01 	movb   $0x1,0x204319(%rip)        # 2053a8 <completed.7697>
    108f:	5d                   	pop    %rbp
    1090:	c3                   	retq   
    1091:	0f 1f 80 00 00 00 00 	nopl   0x0(%rax)
    1098:	f3 c3                	repz retq 
    109a:	66 0f 1f 44 00 00    	nopw   0x0(%rax,%rax,1)

00000000000010a0 <frame_dummy>:
    10a0:	55                   	push   %rbp
    10a1:	48 89 e5             	mov    %rsp,%rbp
    10a4:	5d                   	pop    %rbp
    10a5:	e9 66 ff ff ff       	jmpq   1010 <register_tm_clones>

00000000000010aa <usage>:
    10aa:	48 83 ec 08          	sub    $0x8,%rsp
    10ae:	48 89 fa             	mov    %rdi,%rdx
    10b1:	83 3d 30 43 20 00 00 	cmpl   $0x0,0x204330(%rip)        # 2053e8 <is_checker>
    10b8:	74 50                	je     110a <usage+0x60>
    10ba:	48 8d 35 b7 20 00 00 	lea    0x20b7(%rip),%rsi        # 3178 <_IO_stdin_used+0x8>
    10c1:	bf 01 00 00 00       	mov    $0x1,%edi
    10c6:	b8 00 00 00 00       	mov    $0x0,%eax
    10cb:	e8 30 fe ff ff       	callq  f00 <__printf_chk@plt>
    10d0:	48 8d 3d d9 20 00 00 	lea    0x20d9(%rip),%rdi        # 31b0 <_IO_stdin_used+0x40>
    10d7:	e8 04 fd ff ff       	callq  de0 <puts@plt>
    10dc:	48 8d 3d cf 21 00 00 	lea    0x21cf(%rip),%rdi        # 32b2 <_IO_stdin_used+0x142>
    10e3:	e8 f8 fc ff ff       	callq  de0 <puts@plt>
    10e8:	48 8d 3d e9 20 00 00 	lea    0x20e9(%rip),%rdi        # 31d8 <_IO_stdin_used+0x68>
    10ef:	e8 ec fc ff ff       	callq  de0 <puts@plt>
    10f4:	48 8d 3d d1 21 00 00 	lea    0x21d1(%rip),%rdi        # 32cc <_IO_stdin_used+0x15c>
    10fb:	e8 e0 fc ff ff       	callq  de0 <puts@plt>
    1100:	bf 00 00 00 00       	mov    $0x0,%edi
    1105:	e8 36 fe ff ff       	callq  f40 <exit@plt>
    110a:	48 8d 35 d7 21 00 00 	lea    0x21d7(%rip),%rsi        # 32e8 <_IO_stdin_used+0x178>
    1111:	bf 01 00 00 00       	mov    $0x1,%edi
    1116:	b8 00 00 00 00       	mov    $0x0,%eax
    111b:	e8 e0 fd ff ff       	callq  f00 <__printf_chk@plt>
    1120:	48 8d 3d d9 20 00 00 	lea    0x20d9(%rip),%rdi        # 3200 <_IO_stdin_used+0x90>
    1127:	e8 b4 fc ff ff       	callq  de0 <puts@plt>
    112c:	48 8d 3d f5 20 00 00 	lea    0x20f5(%rip),%rdi        # 3228 <_IO_stdin_used+0xb8>
    1133:	e8 a8 fc ff ff       	callq  de0 <puts@plt>
    1138:	48 8d 3d c7 21 00 00 	lea    0x21c7(%rip),%rdi        # 3306 <_IO_stdin_used+0x196>
    113f:	e8 9c fc ff ff       	callq  de0 <puts@plt>
    1144:	eb ba                	jmp    1100 <usage+0x56>

0000000000001146 <initialize_target>:
    1146:	55                   	push   %rbp
    1147:	53                   	push   %rbx
    1148:	48 81 ec 18 21 00 00 	sub    $0x2118,%rsp
    114f:	89 f5                	mov    %esi,%ebp
    1151:	64 48 8b 04 25 28 00 	mov    %fs:0x28,%rax
    1158:	00 00 
    115a:	48 89 84 24 08 21 00 	mov    %rax,0x2108(%rsp)
    1161:	00 
    1162:	31 c0                	xor    %eax,%eax
    1164:	89 3d 6e 42 20 00    	mov    %edi,0x20426e(%rip)        # 2053d8 <check_level>
    116a:	8b 3d a0 3e 20 00    	mov    0x203ea0(%rip),%edi        # 205010 <target_id>
    1170:	e8 52 1f 00 00       	callq  30c7 <gencookie>
    1175:	89 05 69 42 20 00    	mov    %eax,0x204269(%rip)        # 2053e4 <cookie>
    117b:	89 c7                	mov    %eax,%edi
    117d:	e8 45 1f 00 00       	callq  30c7 <gencookie>
    1182:	89 05 58 42 20 00    	mov    %eax,0x204258(%rip)        # 2053e0 <authkey>
    1188:	8b 05 82 3e 20 00    	mov    0x203e82(%rip),%eax        # 205010 <target_id>
    118e:	8d 78 01             	lea    0x1(%rax),%edi
    1191:	e8 1a fc ff ff       	callq  db0 <srandom@plt>
    1196:	e8 25 fd ff ff       	callq  ec0 <random@plt>
    119b:	89 c7                	mov    %eax,%edi
    119d:	e8 6c 02 00 00       	callq  140e <scramble>
    11a2:	89 c3                	mov    %eax,%ebx
    11a4:	85 ed                	test   %ebp,%ebp
    11a6:	75 54                	jne    11fc <initialize_target+0xb6>
    11a8:	b8 00 00 00 00       	mov    $0x0,%eax
    11ad:	01 d8                	add    %ebx,%eax
    11af:	0f b7 c0             	movzwl %ax,%eax
    11b2:	8d 04 c5 00 01 00 00 	lea    0x100(,%rax,8),%eax
    11b9:	89 c0                	mov    %eax,%eax
    11bb:	48 89 05 9e 41 20 00 	mov    %rax,0x20419e(%rip)        # 205360 <buf_offset>
    11c2:	c6 05 3f 4e 20 00 72 	movb   $0x72,0x204e3f(%rip)        # 206008 <target_prefix>
    11c9:	83 3d 98 41 20 00 00 	cmpl   $0x0,0x204198(%rip)        # 205368 <notify>
    11d0:	74 09                	je     11db <initialize_target+0x95>
    11d2:	83 3d 0f 42 20 00 00 	cmpl   $0x0,0x20420f(%rip)        # 2053e8 <is_checker>
    11d9:	74 39                	je     1214 <initialize_target+0xce>
    11db:	48 8b 84 24 08 21 00 	mov    0x2108(%rsp),%rax
    11e2:	00 
    11e3:	64 48 33 04 25 28 00 	xor    %fs:0x28,%rax
    11ea:	00 00 
    11ec:	0f 85 82 00 00 00    	jne    1274 <initialize_target+0x12e>
    11f2:	48 81 c4 18 21 00 00 	add    $0x2118,%rsp
    11f9:	5b                   	pop    %rbx
    11fa:	5d                   	pop    %rbp
    11fb:	c3                   	retq   
    11fc:	bf 00 00 00 00       	mov    $0x0,%edi
    1201:	e8 aa fc ff ff       	callq  eb0 <time@plt>
    1206:	89 c7                	mov    %eax,%edi
    1208:	e8 a3 fb ff ff       	callq  db0 <srandom@plt>
    120d:	e8 ae fc ff ff       	callq  ec0 <random@plt>
    1212:	eb 99                	jmp    11ad <initialize_target+0x67>
    1214:	48 89 e7             	mov    %rsp,%rdi
    1217:	be 00 01 00 00       	mov    $0x100,%esi
    121c:	e8 0f fd ff ff       	callq  f30 <gethostname@plt>
    1221:	85 c0                	test   %eax,%eax
    1223:	75 39                	jne    125e <initialize_target+0x118>
    1225:	48 8d bc 24 00 01 00 	lea    0x100(%rsp),%rdi
    122c:	00 
    122d:	e8 c5 1b 00 00       	callq  2df7 <init_driver>
    1232:	85 c0                	test   %eax,%eax
    1234:	79 a5                	jns    11db <initialize_target+0x95>
    1236:	48 8d 94 24 00 01 00 	lea    0x100(%rsp),%rdx
    123d:	00 
    123e:	48 8d 35 4b 20 00 00 	lea    0x204b(%rip),%rsi        # 3290 <_IO_stdin_used+0x120>
    1245:	bf 01 00 00 00       	mov    $0x1,%edi
    124a:	b8 00 00 00 00       	mov    $0x0,%eax
    124f:	e8 ac fc ff ff       	callq  f00 <__printf_chk@plt>
    1254:	bf 08 00 00 00       	mov    $0x8,%edi
    1259:	e8 e2 fc ff ff       	callq  f40 <exit@plt>
    125e:	48 8d 3d f3 1f 00 00 	lea    0x1ff3(%rip),%rdi        # 3258 <_IO_stdin_used+0xe8>
    1265:	e8 76 fb ff ff       	callq  de0 <puts@plt>
    126a:	bf 08 00 00 00       	mov    $0x8,%edi
    126f:	e8 cc fc ff ff       	callq  f40 <exit@plt>
    1274:	e8 87 fb ff ff       	callq  e00 <__stack_chk_fail@plt>

0000000000001279 <main>:
    1279:	41 55                	push   %r13
    127b:	41 54                	push   %r12
    127d:	55                   	push   %rbp
    127e:	53                   	push   %rbx
    127f:	48 83 ec 08          	sub    $0x8,%rsp
    1283:	89 fd                	mov    %edi,%ebp
    1285:	48 89 f3             	mov    %rsi,%rbx
    1288:	48 8d 35 6f 0e 00 00 	lea    0xe6f(%rip),%rsi        # 20fe <seghandler>
    128f:	bf 0b 00 00 00       	mov    $0xb,%edi
    1294:	e8 c7 fb ff ff       	callq  e60 <signal@plt>
    1299:	48 8d 35 0a 0e 00 00 	lea    0xe0a(%rip),%rsi        # 20aa <bushandler>
    12a0:	bf 07 00 00 00       	mov    $0x7,%edi
    12a5:	e8 b6 fb ff ff       	callq  e60 <signal@plt>
    12aa:	48 8d 35 a1 0e 00 00 	lea    0xea1(%rip),%rsi        # 2152 <illegalhandler>
    12b1:	bf 04 00 00 00       	mov    $0x4,%edi
    12b6:	e8 a5 fb ff ff       	callq  e60 <signal@plt>
    12bb:	83 3d 26 41 20 00 00 	cmpl   $0x0,0x204126(%rip)        # 2053e8 <is_checker>
    12c2:	75 20                	jne    12e4 <main+0x6b>
    12c4:	4c 8d 25 54 20 00 00 	lea    0x2054(%rip),%r12        # 331f <_IO_stdin_used+0x1af>
    12cb:	48 8b 05 ae 40 20 00 	mov    0x2040ae(%rip),%rax        # 205380 <stdin@@GLIBC_2.2.5>
    12d2:	48 89 05 f7 40 20 00 	mov    %rax,0x2040f7(%rip)        # 2053d0 <infile>
    12d9:	41 bd 00 00 00 00    	mov    $0x0,%r13d
    12df:	e9 8d 00 00 00       	jmpq   1371 <main+0xf8>
    12e4:	48 8d 35 bb 0e 00 00 	lea    0xebb(%rip),%rsi        # 21a6 <sigalrmhandler>
    12eb:	bf 0e 00 00 00       	mov    $0xe,%edi
    12f0:	e8 6b fb ff ff       	callq  e60 <signal@plt>
    12f5:	bf 05 00 00 00       	mov    $0x5,%edi
    12fa:	e8 31 fb ff ff       	callq  e30 <alarm@plt>
    12ff:	4c 8d 25 1e 20 00 00 	lea    0x201e(%rip),%r12        # 3324 <_IO_stdin_used+0x1b4>
    1306:	eb c3                	jmp    12cb <main+0x52>
    1308:	48 8b 3b             	mov    (%rbx),%rdi
    130b:	e8 9a fd ff ff       	callq  10aa <usage>
    1310:	48 8d 35 8e 22 00 00 	lea    0x228e(%rip),%rsi        # 35a5 <_IO_stdin_used+0x435>
    1317:	48 8b 3d 6a 40 20 00 	mov    0x20406a(%rip),%rdi        # 205388 <optarg@@GLIBC_2.2.5>
    131e:	e8 ed fb ff ff       	callq  f10 <fopen@plt>
    1323:	48 89 05 a6 40 20 00 	mov    %rax,0x2040a6(%rip)        # 2053d0 <infile>
    132a:	48 85 c0             	test   %rax,%rax
    132d:	75 42                	jne    1371 <main+0xf8>
    132f:	48 8b 0d 52 40 20 00 	mov    0x204052(%rip),%rcx        # 205388 <optarg@@GLIBC_2.2.5>
    1336:	48 8d 15 ef 1f 00 00 	lea    0x1fef(%rip),%rdx        # 332c <_IO_stdin_used+0x1bc>
    133d:	be 01 00 00 00       	mov    $0x1,%esi
    1342:	48 8b 3d 57 40 20 00 	mov    0x204057(%rip),%rdi        # 2053a0 <stderr@@GLIBC_2.2.5>
    1349:	e8 12 fc ff ff       	callq  f60 <__fprintf_chk@plt>
    134e:	b8 01 00 00 00       	mov    $0x1,%eax
    1353:	e9 ab 00 00 00       	jmpq   1403 <main+0x18a>
    1358:	ba 0a 00 00 00       	mov    $0xa,%edx
    135d:	be 00 00 00 00       	mov    $0x0,%esi
    1362:	48 8b 3d 1f 40 20 00 	mov    0x20401f(%rip),%rdi        # 205388 <optarg@@GLIBC_2.2.5>
    1369:	e8 22 fb ff ff       	callq  e90 <strtol@plt>
    136e:	41 89 c5             	mov    %eax,%r13d
    1371:	4c 89 e2             	mov    %r12,%rdx
    1374:	48 89 de             	mov    %rbx,%rsi
    1377:	89 ef                	mov    %ebp,%edi
    1379:	e8 a2 fb ff ff       	callq  f20 <getopt@plt>
    137e:	3c ff                	cmp    $0xff,%al
    1380:	74 47                	je     13c9 <main+0x150>
    1382:	0f be d0             	movsbl %al,%edx
    1385:	83 e8 61             	sub    $0x61,%eax
    1388:	3c 10                	cmp    $0x10,%al
    138a:	77 1f                	ja     13ab <main+0x132>
    138c:	0f b6 c0             	movzbl %al,%eax
    138f:	48 8d 0d d6 1f 00 00 	lea    0x1fd6(%rip),%rcx        # 336c <_IO_stdin_used+0x1fc>
    1396:	48 63 04 81          	movslq (%rcx,%rax,4),%rax
    139a:	48 01 c8             	add    %rcx,%rax
    139d:	ff e0                	jmpq   *%rax
    139f:	c7 05 bf 3f 20 00 00 	movl   $0x0,0x203fbf(%rip)        # 205368 <notify>
    13a6:	00 00 00 
    13a9:	eb c6                	jmp    1371 <main+0xf8>
    13ab:	48 8d 35 97 1f 00 00 	lea    0x1f97(%rip),%rsi        # 3349 <_IO_stdin_used+0x1d9>
    13b2:	bf 01 00 00 00       	mov    $0x1,%edi
    13b7:	b8 00 00 00 00       	mov    $0x0,%eax
    13bc:	e8 3f fb ff ff       	callq  f00 <__printf_chk@plt>
    13c1:	48 8b 3b             	mov    (%rbx),%rdi
    13c4:	e8 e1 fc ff ff       	callq  10aa <usage>
    13c9:	be 01 00 00 00       	mov    $0x1,%esi
    13ce:	44 89 ef             	mov    %r13d,%edi
    13d1:	e8 70 fd ff ff       	callq  1146 <initialize_target>
    13d6:	8b 15 08 40 20 00    	mov    0x204008(%rip),%edx        # 2053e4 <cookie>
    13dc:	48 8d 35 79 1f 00 00 	lea    0x1f79(%rip),%rsi        # 335c <_IO_stdin_used+0x1ec>
    13e3:	bf 01 00 00 00       	mov    $0x1,%edi
    13e8:	b8 00 00 00 00       	mov    $0x0,%eax
    13ed:	e8 0e fb ff ff       	callq  f00 <__printf_chk@plt>
    13f2:	48 8b 3d 67 3f 20 00 	mov    0x203f67(%rip),%rdi        # 205360 <buf_offset>
    13f9:	e8 ff 0d 00 00       	callq  21fd <launch>
    13fe:	b8 00 00 00 00       	mov    $0x0,%eax
    1403:	48 83 c4 08          	add    $0x8,%rsp
    1407:	5b                   	pop    %rbx
    1408:	5d                   	pop    %rbp
    1409:	41 5c                	pop    %r12
    140b:	41 5d                	pop    %r13
    140d:	c3                   	retq   

000000000000140e <scramble>:
    140e:	48 83 ec 38          	sub    $0x38,%rsp
    1412:	64 48 8b 04 25 28 00 	mov    %fs:0x28,%rax
    1419:	00 00 
    141b:	48 89 44 24 28       	mov    %rax,0x28(%rsp)
    1420:	31 c0                	xor    %eax,%eax
    1422:	eb 10                	jmp    1434 <scramble+0x26>
    1424:	69 d0 66 bf 00 00    	imul   $0xbf66,%eax,%edx
    142a:	01 fa                	add    %edi,%edx
    142c:	89 c1                	mov    %eax,%ecx
    142e:	89 14 8c             	mov    %edx,(%rsp,%rcx,4)
    1431:	83 c0 01             	add    $0x1,%eax
    1434:	83 f8 09             	cmp    $0x9,%eax
    1437:	76 eb                	jbe    1424 <scramble+0x16>
    1439:	8b 44 24 14          	mov    0x14(%rsp),%eax
    143d:	69 c0 3d 3b 00 00    	imul   $0x3b3d,%eax,%eax
    1443:	89 44 24 14          	mov    %eax,0x14(%rsp)
    1447:	8b 44 24 14          	mov    0x14(%rsp),%eax
    144b:	69 c0 50 b1 00 00    	imul   $0xb150,%eax,%eax
    1451:	89 44 24 14          	mov    %eax,0x14(%rsp)
    1455:	8b 44 24 08          	mov    0x8(%rsp),%eax
    1459:	69 c0 b2 fb 00 00    	imul   $0xfbb2,%eax,%eax
    145f:	89 44 24 08          	mov    %eax,0x8(%rsp)
    1463:	8b 44 24 20          	mov    0x20(%rsp),%eax
    1467:	69 c0 1f df 00 00    	imul   $0xdf1f,%eax,%eax
    146d:	89 44 24 20          	mov    %eax,0x20(%rsp)
    1471:	8b 44 24 08          	mov    0x8(%rsp),%eax
    1475:	69 c0 ab 9d 00 00    	imul   $0x9dab,%eax,%eax
    147b:	89 44 24 08          	mov    %eax,0x8(%rsp)
    147f:	8b 44 24 10          	mov    0x10(%rsp),%eax
    1483:	69 c0 60 a6 00 00    	imul   $0xa660,%eax,%eax
    1489:	89 44 24 10          	mov    %eax,0x10(%rsp)
    148d:	8b 44 24 14          	mov    0x14(%rsp),%eax
    1491:	69 c0 62 a6 00 00    	imul   $0xa662,%eax,%eax
    1497:	89 44 24 14          	mov    %eax,0x14(%rsp)
    149b:	8b 44 24 1c          	mov    0x1c(%rsp),%eax
    149f:	69 c0 8d 0f 00 00    	imul   $0xf8d,%eax,%eax
    14a5:	89 44 24 1c          	mov    %eax,0x1c(%rsp)
    14a9:	8b 44 24 0c          	mov    0xc(%rsp),%eax
    14ad:	69 c0 84 cc 00 00    	imul   $0xcc84,%eax,%eax
    14b3:	89 44 24 0c          	mov    %eax,0xc(%rsp)
    14b7:	8b 04 24             	mov    (%rsp),%eax
    14ba:	69 c0 6d e6 00 00    	imul   $0xe66d,%eax,%eax
    14c0:	89 04 24             	mov    %eax,(%rsp)
    14c3:	8b 44 24 04          	mov    0x4(%rsp),%eax
    14c7:	69 c0 75 63 00 00    	imul   $0x6375,%eax,%eax
    14cd:	89 44 24 04          	mov    %eax,0x4(%rsp)
    14d1:	8b 44 24 04          	mov    0x4(%rsp),%eax
    14d5:	69 c0 00 dc 00 00    	imul   $0xdc00,%eax,%eax
    14db:	89 44 24 04          	mov    %eax,0x4(%rsp)
    14df:	8b 44 24 04          	mov    0x4(%rsp),%eax
    14e3:	69 c0 08 c4 00 00    	imul   $0xc408,%eax,%eax
    14e9:	89 44 24 04          	mov    %eax,0x4(%rsp)
    14ed:	8b 44 24 20          	mov    0x20(%rsp),%eax
    14f1:	69 c0 38 7c 00 00    	imul   $0x7c38,%eax,%eax
    14f7:	89 44 24 20          	mov    %eax,0x20(%rsp)
    14fb:	8b 44 24 14          	mov    0x14(%rsp),%eax
    14ff:	69 c0 c5 89 00 00    	imul   $0x89c5,%eax,%eax
    1505:	89 44 24 14          	mov    %eax,0x14(%rsp)
    1509:	8b 44 24 10          	mov    0x10(%rsp),%eax
    150d:	69 c0 da 21 00 00    	imul   $0x21da,%eax,%eax
    1513:	89 44 24 10          	mov    %eax,0x10(%rsp)
    1517:	8b 44 24 20          	mov    0x20(%rsp),%eax
    151b:	69 c0 94 46 00 00    	imul   $0x4694,%eax,%eax
    1521:	89 44 24 20          	mov    %eax,0x20(%rsp)
    1525:	8b 44 24 14          	mov    0x14(%rsp),%eax
    1529:	69 c0 14 a5 00 00    	imul   $0xa514,%eax,%eax
    152f:	89 44 24 14          	mov    %eax,0x14(%rsp)
    1533:	8b 44 24 0c          	mov    0xc(%rsp),%eax
    1537:	69 c0 7b 8a 00 00    	imul   $0x8a7b,%eax,%eax
    153d:	89 44 24 0c          	mov    %eax,0xc(%rsp)
    1541:	8b 44 24 10          	mov    0x10(%rsp),%eax
    1545:	69 c0 d7 bf 00 00    	imul   $0xbfd7,%eax,%eax
    154b:	89 44 24 10          	mov    %eax,0x10(%rsp)
    154f:	8b 44 24 04          	mov    0x4(%rsp),%eax
    1553:	69 c0 64 46 00 00    	imul   $0x4664,%eax,%eax
    1559:	89 44 24 04          	mov    %eax,0x4(%rsp)
    155d:	8b 44 24 20          	mov    0x20(%rsp),%eax
    1561:	69 c0 12 04 00 00    	imul   $0x412,%eax,%eax
    1567:	89 44 24 20          	mov    %eax,0x20(%rsp)
    156b:	8b 44 24 08          	mov    0x8(%rsp),%eax
    156f:	69 c0 f8 84 00 00    	imul   $0x84f8,%eax,%eax
    1575:	89 44 24 08          	mov    %eax,0x8(%rsp)
    1579:	8b 44 24 0c          	mov    0xc(%rsp),%eax
    157d:	69 c0 09 2d 00 00    	imul   $0x2d09,%eax,%eax
    1583:	89 44 24 0c          	mov    %eax,0xc(%rsp)
    1587:	8b 44 24 0c          	mov    0xc(%rsp),%eax
    158b:	69 c0 a1 29 00 00    	imul   $0x29a1,%eax,%eax
    1591:	89 44 24 0c          	mov    %eax,0xc(%rsp)
    1595:	8b 04 24             	mov    (%rsp),%eax
    1598:	69 c0 15 a0 00 00    	imul   $0xa015,%eax,%eax
    159e:	89 04 24             	mov    %eax,(%rsp)
    15a1:	8b 44 24 14          	mov    0x14(%rsp),%eax
    15a5:	69 c0 38 a2 00 00    	imul   $0xa238,%eax,%eax
    15ab:	89 44 24 14          	mov    %eax,0x14(%rsp)
    15af:	8b 44 24 10          	mov    0x10(%rsp),%eax
    15b3:	69 c0 c8 14 00 00    	imul   $0x14c8,%eax,%eax
    15b9:	89 44 24 10          	mov    %eax,0x10(%rsp)
    15bd:	8b 44 24 10          	mov    0x10(%rsp),%eax
    15c1:	69 c0 c6 92 00 00    	imul   $0x92c6,%eax,%eax
    15c7:	89 44 24 10          	mov    %eax,0x10(%rsp)
    15cb:	8b 44 24 0c          	mov    0xc(%rsp),%eax
    15cf:	69 c0 b5 c8 00 00    	imul   $0xc8b5,%eax,%eax
    15d5:	89 44 24 0c          	mov    %eax,0xc(%rsp)
    15d9:	8b 44 24 14          	mov    0x14(%rsp),%eax
    15dd:	69 c0 0e d0 00 00    	imul   $0xd00e,%eax,%eax
    15e3:	89 44 24 14          	mov    %eax,0x14(%rsp)
    15e7:	8b 44 24 08          	mov    0x8(%rsp),%eax
    15eb:	69 c0 8e e1 00 00    	imul   $0xe18e,%eax,%eax
    15f1:	89 44 24 08          	mov    %eax,0x8(%rsp)
    15f5:	8b 04 24             	mov    (%rsp),%eax
    15f8:	69 c0 ba bd 00 00    	imul   $0xbdba,%eax,%eax
    15fe:	89 04 24             	mov    %eax,(%rsp)
    1601:	8b 44 24 1c          	mov    0x1c(%rsp),%eax
    1605:	69 c0 e9 58 00 00    	imul   $0x58e9,%eax,%eax
    160b:	89 44 24 1c          	mov    %eax,0x1c(%rsp)
    160f:	8b 44 24 10          	mov    0x10(%rsp),%eax
    1613:	69 c0 d5 0a 00 00    	imul   $0xad5,%eax,%eax
    1619:	89 44 24 10          	mov    %eax,0x10(%rsp)
    161d:	8b 44 24 0c          	mov    0xc(%rsp),%eax
    1621:	69 c0 5b 70 00 00    	imul   $0x705b,%eax,%eax
    1627:	89 44 24 0c          	mov    %eax,0xc(%rsp)
    162b:	8b 44 24 10          	mov    0x10(%rsp),%eax
    162f:	69 c0 f7 7e 00 00    	imul   $0x7ef7,%eax,%eax
    1635:	89 44 24 10          	mov    %eax,0x10(%rsp)
    1639:	8b 44 24 08          	mov    0x8(%rsp),%eax
    163d:	69 c0 ff 3d 00 00    	imul   $0x3dff,%eax,%eax
    1643:	89 44 24 08          	mov    %eax,0x8(%rsp)
    1647:	8b 44 24 04          	mov    0x4(%rsp),%eax
    164b:	69 c0 0e 88 00 00    	imul   $0x880e,%eax,%eax
    1651:	89 44 24 04          	mov    %eax,0x4(%rsp)
    1655:	8b 44 24 0c          	mov    0xc(%rsp),%eax
    1659:	69 c0 6d 55 00 00    	imul   $0x556d,%eax,%eax
    165f:	89 44 24 0c          	mov    %eax,0xc(%rsp)
    1663:	8b 04 24             	mov    (%rsp),%eax
    1666:	69 c0 80 7e 00 00    	imul   $0x7e80,%eax,%eax
    166c:	89 04 24             	mov    %eax,(%rsp)
    166f:	8b 44 24 08          	mov    0x8(%rsp),%eax
    1673:	69 c0 c6 3e 00 00    	imul   $0x3ec6,%eax,%eax
    1679:	89 44 24 08          	mov    %eax,0x8(%rsp)
    167d:	8b 04 24             	mov    (%rsp),%eax
    1680:	69 c0 97 71 00 00    	imul   $0x7197,%eax,%eax
    1686:	89 04 24             	mov    %eax,(%rsp)
    1689:	8b 44 24 14          	mov    0x14(%rsp),%eax
    168d:	69 c0 f9 86 00 00    	imul   $0x86f9,%eax,%eax
    1693:	89 44 24 14          	mov    %eax,0x14(%rsp)
    1697:	8b 44 24 10          	mov    0x10(%rsp),%eax
    169b:	69 c0 8e e4 00 00    	imul   $0xe48e,%eax,%eax
    16a1:	89 44 24 10          	mov    %eax,0x10(%rsp)
    16a5:	8b 44 24 20          	mov    0x20(%rsp),%eax
    16a9:	69 c0 e9 20 00 00    	imul   $0x20e9,%eax,%eax
    16af:	89 44 24 20          	mov    %eax,0x20(%rsp)
    16b3:	8b 44 24 24          	mov    0x24(%rsp),%eax
    16b7:	69 c0 3d 3a 00 00    	imul   $0x3a3d,%eax,%eax
    16bd:	89 44 24 24          	mov    %eax,0x24(%rsp)
    16c1:	8b 44 24 14          	mov    0x14(%rsp),%eax
    16c5:	69 c0 3f cb 00 00    	imul   $0xcb3f,%eax,%eax
    16cb:	89 44 24 14          	mov    %eax,0x14(%rsp)
    16cf:	8b 44 24 08          	mov    0x8(%rsp),%eax
    16d3:	69 c0 19 89 00 00    	imul   $0x8919,%eax,%eax
    16d9:	89 44 24 08          	mov    %eax,0x8(%rsp)
    16dd:	8b 44 24 18          	mov    0x18(%rsp),%eax
    16e1:	69 c0 2c 40 00 00    	imul   $0x402c,%eax,%eax
    16e7:	89 44 24 18          	mov    %eax,0x18(%rsp)
    16eb:	8b 44 24 20          	mov    0x20(%rsp),%eax
    16ef:	69 c0 e9 3c 00 00    	imul   $0x3ce9,%eax,%eax
    16f5:	89 44 24 20          	mov    %eax,0x20(%rsp)
    16f9:	8b 44 24 08          	mov    0x8(%rsp),%eax
    16fd:	69 c0 28 e5 00 00    	imul   $0xe528,%eax,%eax
    1703:	89 44 24 08          	mov    %eax,0x8(%rsp)
    1707:	8b 44 24 1c          	mov    0x1c(%rsp),%eax
    170b:	69 c0 f6 24 00 00    	imul   $0x24f6,%eax,%eax
    1711:	89 44 24 1c          	mov    %eax,0x1c(%rsp)
    1715:	8b 04 24             	mov    (%rsp),%eax
    1718:	69 c0 d0 bf 00 00    	imul   $0xbfd0,%eax,%eax
    171e:	89 04 24             	mov    %eax,(%rsp)
    1721:	8b 44 24 0c          	mov    0xc(%rsp),%eax
    1725:	69 c0 30 8e 00 00    	imul   $0x8e30,%eax,%eax
    172b:	89 44 24 0c          	mov    %eax,0xc(%rsp)
    172f:	8b 44 24 10          	mov    0x10(%rsp),%eax
    1733:	69 c0 b3 5e 00 00    	imul   $0x5eb3,%eax,%eax
    1739:	89 44 24 10          	mov    %eax,0x10(%rsp)
    173d:	8b 44 24 04          	mov    0x4(%rsp),%eax
    1741:	69 c0 bf 0a 00 00    	imul   $0xabf,%eax,%eax
    1747:	89 44 24 04          	mov    %eax,0x4(%rsp)
    174b:	8b 44 24 08          	mov    0x8(%rsp),%eax
    174f:	69 c0 69 2d 00 00    	imul   $0x2d69,%eax,%eax
    1755:	89 44 24 08          	mov    %eax,0x8(%rsp)
    1759:	8b 04 24             	mov    (%rsp),%eax
    175c:	69 c0 07 f1 00 00    	imul   $0xf107,%eax,%eax
    1762:	89 04 24             	mov    %eax,(%rsp)
    1765:	8b 44 24 08          	mov    0x8(%rsp),%eax
    1769:	69 c0 b4 80 00 00    	imul   $0x80b4,%eax,%eax
    176f:	89 44 24 08          	mov    %eax,0x8(%rsp)
    1773:	8b 44 24 24          	mov    0x24(%rsp),%eax
    1777:	69 c0 10 04 00 00    	imul   $0x410,%eax,%eax
    177d:	89 44 24 24          	mov    %eax,0x24(%rsp)
    1781:	8b 44 24 14          	mov    0x14(%rsp),%eax
    1785:	69 c0 32 8a 00 00    	imul   $0x8a32,%eax,%eax
    178b:	89 44 24 14          	mov    %eax,0x14(%rsp)
    178f:	8b 44 24 0c          	mov    0xc(%rsp),%eax
    1793:	69 c0 14 a4 00 00    	imul   $0xa414,%eax,%eax
    1799:	89 44 24 0c          	mov    %eax,0xc(%rsp)
    179d:	8b 44 24 04          	mov    0x4(%rsp),%eax
    17a1:	69 c0 45 36 00 00    	imul   $0x3645,%eax,%eax
    17a7:	89 44 24 04          	mov    %eax,0x4(%rsp)
    17ab:	8b 44 24 1c          	mov    0x1c(%rsp),%eax
    17af:	69 c0 9a 79 00 00    	imul   $0x799a,%eax,%eax
    17b5:	89 44 24 1c          	mov    %eax,0x1c(%rsp)
    17b9:	8b 44 24 14          	mov    0x14(%rsp),%eax
    17bd:	69 c0 1b c1 00 00    	imul   $0xc11b,%eax,%eax
    17c3:	89 44 24 14          	mov    %eax,0x14(%rsp)
    17c7:	8b 44 24 04          	mov    0x4(%rsp),%eax
    17cb:	69 c0 f9 26 00 00    	imul   $0x26f9,%eax,%eax
    17d1:	89 44 24 04          	mov    %eax,0x4(%rsp)
    17d5:	8b 44 24 04          	mov    0x4(%rsp),%eax
    17d9:	69 c0 63 72 00 00    	imul   $0x7263,%eax,%eax
    17df:	89 44 24 04          	mov    %eax,0x4(%rsp)
    17e3:	8b 44 24 18          	mov    0x18(%rsp),%eax
    17e7:	69 c0 6b c9 00 00    	imul   $0xc96b,%eax,%eax
    17ed:	89 44 24 18          	mov    %eax,0x18(%rsp)
    17f1:	8b 44 24 24          	mov    0x24(%rsp),%eax
    17f5:	69 c0 f3 f8 00 00    	imul   $0xf8f3,%eax,%eax
    17fb:	89 44 24 24          	mov    %eax,0x24(%rsp)
    17ff:	8b 44 24 24          	mov    0x24(%rsp),%eax
    1803:	69 c0 71 47 00 00    	imul   $0x4771,%eax,%eax
    1809:	89 44 24 24          	mov    %eax,0x24(%rsp)
    180d:	8b 44 24 14          	mov    0x14(%rsp),%eax
    1811:	69 c0 4c 64 00 00    	imul   $0x644c,%eax,%eax
    1817:	89 44 24 14          	mov    %eax,0x14(%rsp)
    181b:	8b 44 24 14          	mov    0x14(%rsp),%eax
    181f:	69 c0 20 f5 00 00    	imul   $0xf520,%eax,%eax
    1825:	89 44 24 14          	mov    %eax,0x14(%rsp)
    1829:	8b 44 24 18          	mov    0x18(%rsp),%eax
    182d:	69 c0 87 ce 00 00    	imul   $0xce87,%eax,%eax
    1833:	89 44 24 18          	mov    %eax,0x18(%rsp)
    1837:	8b 44 24 24          	mov    0x24(%rsp),%eax
    183b:	69 c0 17 46 00 00    	imul   $0x4617,%eax,%eax
    1841:	89 44 24 24          	mov    %eax,0x24(%rsp)
    1845:	8b 44 24 04          	mov    0x4(%rsp),%eax
    1849:	69 c0 be bb 00 00    	imul   $0xbbbe,%eax,%eax
    184f:	89 44 24 04          	mov    %eax,0x4(%rsp)
    1853:	8b 44 24 08          	mov    0x8(%rsp),%eax
    1857:	69 c0 d8 f0 00 00    	imul   $0xf0d8,%eax,%eax
    185d:	89 44 24 08          	mov    %eax,0x8(%rsp)
    1861:	8b 04 24             	mov    (%rsp),%eax
    1864:	69 c0 74 88 00 00    	imul   $0x8874,%eax,%eax
    186a:	89 04 24             	mov    %eax,(%rsp)
    186d:	8b 44 24 0c          	mov    0xc(%rsp),%eax
    1871:	69 c0 62 9b 00 00    	imul   $0x9b62,%eax,%eax
    1877:	89 44 24 0c          	mov    %eax,0xc(%rsp)
    187b:	8b 44 24 18          	mov    0x18(%rsp),%eax
    187f:	69 c0 19 c2 00 00    	imul   $0xc219,%eax,%eax
    1885:	89 44 24 18          	mov    %eax,0x18(%rsp)
    1889:	8b 44 24 0c          	mov    0xc(%rsp),%eax
    188d:	69 c0 2b 35 00 00    	imul   $0x352b,%eax,%eax
    1893:	89 44 24 0c          	mov    %eax,0xc(%rsp)
    1897:	8b 04 24             	mov    (%rsp),%eax
    189a:	69 c0 7f cb 00 00    	imul   $0xcb7f,%eax,%eax
    18a0:	89 04 24             	mov    %eax,(%rsp)
    18a3:	8b 44 24 08          	mov    0x8(%rsp),%eax
    18a7:	69 c0 78 29 00 00    	imul   $0x2978,%eax,%eax
    18ad:	89 44 24 08          	mov    %eax,0x8(%rsp)
    18b1:	8b 44 24 14          	mov    0x14(%rsp),%eax
    18b5:	69 c0 14 a8 00 00    	imul   $0xa814,%eax,%eax
    18bb:	89 44 24 14          	mov    %eax,0x14(%rsp)
    18bf:	8b 44 24 14          	mov    0x14(%rsp),%eax
    18c3:	69 c0 16 70 00 00    	imul   $0x7016,%eax,%eax
    18c9:	89 44 24 14          	mov    %eax,0x14(%rsp)
    18cd:	8b 04 24             	mov    (%rsp),%eax
    18d0:	69 c0 7f 4a 00 00    	imul   $0x4a7f,%eax,%eax
    18d6:	89 04 24             	mov    %eax,(%rsp)
    18d9:	8b 44 24 04          	mov    0x4(%rsp),%eax
    18dd:	69 c0 ae f8 00 00    	imul   $0xf8ae,%eax,%eax
    18e3:	89 44 24 04          	mov    %eax,0x4(%rsp)
    18e7:	8b 44 24 1c          	mov    0x1c(%rsp),%eax
    18eb:	69 c0 b9 09 00 00    	imul   $0x9b9,%eax,%eax
    18f1:	89 44 24 1c          	mov    %eax,0x1c(%rsp)
    18f5:	8b 44 24 18          	mov    0x18(%rsp),%eax
    18f9:	69 c0 80 40 00 00    	imul   $0x4080,%eax,%eax
    18ff:	89 44 24 18          	mov    %eax,0x18(%rsp)
    1903:	8b 44 24 14          	mov    0x14(%rsp),%eax
    1907:	69 c0 f7 d3 00 00    	imul   $0xd3f7,%eax,%eax
    190d:	89 44 24 14          	mov    %eax,0x14(%rsp)
    1911:	8b 44 24 14          	mov    0x14(%rsp),%eax
    1915:	69 c0 7c 27 00 00    	imul   $0x277c,%eax,%eax
    191b:	89 44 24 14          	mov    %eax,0x14(%rsp)
    191f:	8b 44 24 18          	mov    0x18(%rsp),%eax
    1923:	69 c0 be d0 00 00    	imul   $0xd0be,%eax,%eax
    1929:	89 44 24 18          	mov    %eax,0x18(%rsp)
    192d:	8b 44 24 20          	mov    0x20(%rsp),%eax
    1931:	69 c0 a5 d5 00 00    	imul   $0xd5a5,%eax,%eax
    1937:	89 44 24 20          	mov    %eax,0x20(%rsp)
    193b:	8b 44 24 14          	mov    0x14(%rsp),%eax
    193f:	69 c0 41 ad 00 00    	imul   $0xad41,%eax,%eax
    1945:	89 44 24 14          	mov    %eax,0x14(%rsp)
    1949:	ba 00 00 00 00       	mov    $0x0,%edx
    194e:	b8 00 00 00 00       	mov    $0x0,%eax
    1953:	eb 0a                	jmp    195f <scramble+0x551>
    1955:	89 d1                	mov    %edx,%ecx
    1957:	8b 0c 8c             	mov    (%rsp,%rcx,4),%ecx
    195a:	01 c8                	add    %ecx,%eax
    195c:	83 c2 01             	add    $0x1,%edx
    195f:	83 fa 09             	cmp    $0x9,%edx
    1962:	76 f1                	jbe    1955 <scramble+0x547>
    1964:	48 8b 74 24 28       	mov    0x28(%rsp),%rsi
    1969:	64 48 33 34 25 28 00 	xor    %fs:0x28,%rsi
    1970:	00 00 
    1972:	75 05                	jne    1979 <scramble+0x56b>
    1974:	48 83 c4 38          	add    $0x38,%rsp
    1978:	c3                   	retq   
    1979:	e8 82 f4 ff ff       	callq  e00 <__stack_chk_fail@plt>

000000000000197e <getbuf>:
    197e:	48 83 ec 38          	sub    $0x38,%rsp
    1982:	48 89 e7             	mov    %rsp,%rdi
    1985:	e8 b8 03 00 00       	callq  1d42 <Gets>
    198a:	b8 01 00 00 00       	mov    $0x1,%eax
    198f:	48 83 c4 38          	add    $0x38,%rsp
    1993:	c3                   	retq   

0000000000001994 <touch1>:
    1994:	48 83 ec 08          	sub    $0x8,%rsp
    1998:	c7 05 3a 3a 20 00 01 	movl   $0x1,0x203a3a(%rip)        # 2053dc <vlevel>
    199f:	00 00 00 
    19a2:	48 8d 3d 51 1a 00 00 	lea    0x1a51(%rip),%rdi        # 33fa <_IO_stdin_used+0x28a>
    19a9:	e8 32 f4 ff ff       	callq  de0 <puts@plt>
    19ae:	bf 01 00 00 00       	mov    $0x1,%edi
    19b3:	e8 fa 05 00 00       	callq  1fb2 <validate>
    19b8:	bf 00 00 00 00       	mov    $0x0,%edi
    19bd:	e8 7e f5 ff ff       	callq  f40 <exit@plt>

00000000000019c2 <touch2>:
    19c2:	48 83 ec 08          	sub    $0x8,%rsp
    19c6:	89 fa                	mov    %edi,%edx
    19c8:	c7 05 0a 3a 20 00 02 	movl   $0x2,0x203a0a(%rip)        # 2053dc <vlevel>
    19cf:	00 00 00 
    19d2:	39 3d 0c 3a 20 00    	cmp    %edi,0x203a0c(%rip)        # 2053e4 <cookie>
    19d8:	74 2a                	je     1a04 <touch2+0x42>
    19da:	48 8d 35 67 1a 00 00 	lea    0x1a67(%rip),%rsi        # 3448 <_IO_stdin_used+0x2d8>
    19e1:	bf 01 00 00 00       	mov    $0x1,%edi
    19e6:	b8 00 00 00 00       	mov    $0x0,%eax
    19eb:	e8 10 f5 ff ff       	callq  f00 <__printf_chk@plt>
    19f0:	bf 02 00 00 00       	mov    $0x2,%edi
    19f5:	e8 88 06 00 00       	callq  2082 <fail>
    19fa:	bf 00 00 00 00       	mov    $0x0,%edi
    19ff:	e8 3c f5 ff ff       	callq  f40 <exit@plt>
    1a04:	48 8d 35 15 1a 00 00 	lea    0x1a15(%rip),%rsi        # 3420 <_IO_stdin_used+0x2b0>
    1a0b:	bf 01 00 00 00       	mov    $0x1,%edi
    1a10:	b8 00 00 00 00       	mov    $0x0,%eax
    1a15:	e8 e6 f4 ff ff       	callq  f00 <__printf_chk@plt>
    1a1a:	bf 02 00 00 00       	mov    $0x2,%edi
    1a1f:	e8 8e 05 00 00       	callq  1fb2 <validate>
    1a24:	eb d4                	jmp    19fa <touch2+0x38>

0000000000001a26 <hexmatch>:
    1a26:	41 54                	push   %r12
    1a28:	55                   	push   %rbp
    1a29:	53                   	push   %rbx
    1a2a:	48 83 c4 80          	add    $0xffffffffffffff80,%rsp
    1a2e:	89 fd                	mov    %edi,%ebp
    1a30:	48 89 f3             	mov    %rsi,%rbx
    1a33:	64 48 8b 04 25 28 00 	mov    %fs:0x28,%rax
    1a3a:	00 00 
    1a3c:	48 89 44 24 78       	mov    %rax,0x78(%rsp)
    1a41:	31 c0                	xor    %eax,%eax
    1a43:	e8 78 f4 ff ff       	callq  ec0 <random@plt>
    1a48:	48 89 c1             	mov    %rax,%rcx
    1a4b:	48 ba 0b d7 a3 70 3d 	movabs $0xa3d70a3d70a3d70b,%rdx
    1a52:	0a d7 a3 
    1a55:	48 f7 ea             	imul   %rdx
    1a58:	48 01 ca             	add    %rcx,%rdx
    1a5b:	48 c1 fa 06          	sar    $0x6,%rdx
    1a5f:	48 89 c8             	mov    %rcx,%rax
    1a62:	48 c1 f8 3f          	sar    $0x3f,%rax
    1a66:	48 29 c2             	sub    %rax,%rdx
    1a69:	48 8d 04 92          	lea    (%rdx,%rdx,4),%rax
    1a6d:	48 8d 14 80          	lea    (%rax,%rax,4),%rdx
    1a71:	48 8d 04 95 00 00 00 	lea    0x0(,%rdx,4),%rax
    1a78:	00 
    1a79:	48 29 c1             	sub    %rax,%rcx
    1a7c:	4c 8d 24 0c          	lea    (%rsp,%rcx,1),%r12
    1a80:	41 89 e8             	mov    %ebp,%r8d
    1a83:	48 8d 0d 8d 19 00 00 	lea    0x198d(%rip),%rcx        # 3417 <_IO_stdin_used+0x2a7>
    1a8a:	48 c7 c2 ff ff ff ff 	mov    $0xffffffffffffffff,%rdx
    1a91:	be 01 00 00 00       	mov    $0x1,%esi
    1a96:	4c 89 e7             	mov    %r12,%rdi
    1a99:	b8 00 00 00 00       	mov    $0x0,%eax
    1a9e:	e8 cd f4 ff ff       	callq  f70 <__sprintf_chk@plt>
    1aa3:	ba 09 00 00 00       	mov    $0x9,%edx
    1aa8:	4c 89 e6             	mov    %r12,%rsi
    1aab:	48 89 df             	mov    %rbx,%rdi
    1aae:	e8 0d f3 ff ff       	callq  dc0 <strncmp@plt>
    1ab3:	85 c0                	test   %eax,%eax
    1ab5:	0f 94 c0             	sete   %al
    1ab8:	48 8b 5c 24 78       	mov    0x78(%rsp),%rbx
    1abd:	64 48 33 1c 25 28 00 	xor    %fs:0x28,%rbx
    1ac4:	00 00 
    1ac6:	75 0c                	jne    1ad4 <hexmatch+0xae>
    1ac8:	0f b6 c0             	movzbl %al,%eax
    1acb:	48 83 ec 80          	sub    $0xffffffffffffff80,%rsp
    1acf:	5b                   	pop    %rbx
    1ad0:	5d                   	pop    %rbp
    1ad1:	41 5c                	pop    %r12
    1ad3:	c3                   	retq   
    1ad4:	e8 27 f3 ff ff       	callq  e00 <__stack_chk_fail@plt>

0000000000001ad9 <touch3>:
    1ad9:	53                   	push   %rbx
    1ada:	48 89 fb             	mov    %rdi,%rbx
    1add:	c7 05 f5 38 20 00 03 	movl   $0x3,0x2038f5(%rip)        # 2053dc <vlevel>
    1ae4:	00 00 00 
    1ae7:	48 89 fe             	mov    %rdi,%rsi
    1aea:	8b 3d f4 38 20 00    	mov    0x2038f4(%rip),%edi        # 2053e4 <cookie>
    1af0:	e8 31 ff ff ff       	callq  1a26 <hexmatch>
    1af5:	85 c0                	test   %eax,%eax
    1af7:	74 2d                	je     1b26 <touch3+0x4d>
    1af9:	48 89 da             	mov    %rbx,%rdx
    1afc:	48 8d 35 6d 19 00 00 	lea    0x196d(%rip),%rsi        # 3470 <_IO_stdin_used+0x300>
    1b03:	bf 01 00 00 00       	mov    $0x1,%edi
    1b08:	b8 00 00 00 00       	mov    $0x0,%eax
    1b0d:	e8 ee f3 ff ff       	callq  f00 <__printf_chk@plt>
    1b12:	bf 03 00 00 00       	mov    $0x3,%edi
    1b17:	e8 96 04 00 00       	callq  1fb2 <validate>
    1b1c:	bf 00 00 00 00       	mov    $0x0,%edi
    1b21:	e8 1a f4 ff ff       	callq  f40 <exit@plt>
    1b26:	48 89 da             	mov    %rbx,%rdx
    1b29:	48 8d 35 68 19 00 00 	lea    0x1968(%rip),%rsi        # 3498 <_IO_stdin_used+0x328>
    1b30:	bf 01 00 00 00       	mov    $0x1,%edi
    1b35:	b8 00 00 00 00       	mov    $0x0,%eax
    1b3a:	e8 c1 f3 ff ff       	callq  f00 <__printf_chk@plt>
    1b3f:	bf 03 00 00 00       	mov    $0x3,%edi
    1b44:	e8 39 05 00 00       	callq  2082 <fail>
    1b49:	eb d1                	jmp    1b1c <touch3+0x43>

0000000000001b4b <test>:
    1b4b:	48 83 ec 08          	sub    $0x8,%rsp
    1b4f:	b8 00 00 00 00       	mov    $0x0,%eax
    1b54:	e8 25 fe ff ff       	callq  197e <getbuf>
    1b59:	89 c2                	mov    %eax,%edx
    1b5b:	48 8d 35 5e 19 00 00 	lea    0x195e(%rip),%rsi        # 34c0 <_IO_stdin_used+0x350>
    1b62:	bf 01 00 00 00       	mov    $0x1,%edi
    1b67:	b8 00 00 00 00       	mov    $0x0,%eax
    1b6c:	e8 8f f3 ff ff       	callq  f00 <__printf_chk@plt>
    1b71:	48 83 c4 08          	add    $0x8,%rsp
    1b75:	c3                   	retq   

0000000000001b76 <start_farm>:
    1b76:	b8 01 00 00 00       	mov    $0x1,%eax
    1b7b:	c3                   	retq   

0000000000001b7c <addval_263>:
    1b7c:	8d 87 72 0a d7 58    	lea    0x58d70a72(%rdi),%eax
    1b82:	c3                   	retq   

0000000000001b83 <addval_285>:
    1b83:	8d 87 48 89 c7 90    	lea    -0x6f3876b8(%rdi),%eax
    1b89:	c3                   	retq   

0000000000001b8a <getval_119>:
    1b8a:	b8 51 a4 58 94       	mov    $0x9458a451,%eax
    1b8f:	c3                   	retq   

0000000000001b90 <addval_190>:
    1b90:	8d 87 48 81 c7 90    	lea    -0x6f387eb8(%rdi),%eax
    1b96:	c3                   	retq   

0000000000001b97 <setval_115>:
    1b97:	c7 07 a6 7b 1d 48    	movl   $0x481d7ba6,(%rdi)
    1b9d:	c3                   	retq   

0000000000001b9e <setval_392>:
    1b9e:	c7 07 27 08 89 c7    	movl   $0xc7890827,(%rdi)
    1ba4:	c3                   	retq   

0000000000001ba5 <setval_414>:
    1ba5:	c7 07 b4 01 58 c3    	movl   $0xc35801b4,(%rdi)
    1bab:	c3                   	retq   

0000000000001bac <setval_391>:
    1bac:	c7 07 00 48 89 c7    	movl   $0xc7894800,(%rdi)
    1bb2:	c3                   	retq   

0000000000001bb3 <mid_farm>:
    1bb3:	b8 01 00 00 00       	mov    $0x1,%eax
    1bb8:	c3                   	retq   

0000000000001bb9 <add_xy>:
    1bb9:	48 8d 04 37          	lea    (%rdi,%rsi,1),%rax
    1bbd:	c3                   	retq   

0000000000001bbe <setval_444>:
    1bbe:	c7 07 89 ce 90 90    	movl   $0x9090ce89,(%rdi)
    1bc4:	c3                   	retq   

0000000000001bc5 <addval_436>:
    1bc5:	8d 87 89 d1 92 90    	lea    -0x6f6d2e77(%rdi),%eax
    1bcb:	c3                   	retq   

0000000000001bcc <addval_497>:
    1bcc:	8d 87 89 d1 08 c9    	lea    -0x36f72e77(%rdi),%eax
    1bd2:	c3                   	retq   

0000000000001bd3 <addval_366>:
    1bd3:	8d 87 48 8b e0 c3    	lea    -0x3c1f74b8(%rdi),%eax
    1bd9:	c3                   	retq   

0000000000001bda <setval_129>:
    1bda:	c7 07 48 81 e0 90    	movl   $0x90e08148,(%rdi)
    1be0:	c3                   	retq   

0000000000001be1 <getval_357>:
    1be1:	b8 9a 8b d1 90       	mov    $0x90d18b9a,%eax
    1be6:	c3                   	retq   

0000000000001be7 <getval_230>:
    1be7:	b8 89 d1 48 c0       	mov    $0xc048d189,%eax
    1bec:	c3                   	retq   

0000000000001bed <setval_252>:
    1bed:	c7 07 48 89 e0 c1    	movl   $0xc1e08948,(%rdi)
    1bf3:	c3                   	retq   

0000000000001bf4 <addval_238>:
    1bf4:	8d 87 c9 c2 38 d2    	lea    -0x2dc73d37(%rdi),%eax
    1bfa:	c3                   	retq   

0000000000001bfb <setval_408>:
    1bfb:	c7 07 81 c2 84 d2    	movl   $0xd284c281,(%rdi)
    1c01:	c3                   	retq   

0000000000001c02 <setval_214>:
    1c02:	c7 07 89 ce 92 c3    	movl   $0xc392ce89,(%rdi)
    1c08:	c3                   	retq   

0000000000001c09 <getval_204>:
    1c09:	b8 2a dd 88 ce       	mov    $0xce88dd2a,%eax
    1c0e:	c3                   	retq   

0000000000001c0f <setval_427>:
    1c0f:	c7 07 c9 d1 84 c9    	movl   $0xc984d1c9,(%rdi)
    1c15:	c3                   	retq   

0000000000001c16 <getval_411>:
    1c16:	b8 88 c2 90 90       	mov    $0x9090c288,%eax
    1c1b:	c3                   	retq   

0000000000001c1c <getval_183>:
    1c1c:	b8 88 ce 90 90       	mov    $0x9090ce88,%eax
    1c21:	c3                   	retq   

0000000000001c22 <addval_301>:
    1c22:	8d 87 88 c2 84 db    	lea    -0x247b3d78(%rdi),%eax
    1c28:	c3                   	retq   

0000000000001c29 <getval_291>:
    1c29:	b8 2f 48 a9 e0       	mov    $0xe0a9482f,%eax
    1c2e:	c3                   	retq   

0000000000001c2f <addval_244>:
    1c2f:	8d 87 89 d1 48 c9    	lea    -0x36b72e77(%rdi),%eax
    1c35:	c3                   	retq   

0000000000001c36 <setval_349>:
    1c36:	c7 07 89 ce 90 90    	movl   $0x9090ce89,(%rdi)
    1c3c:	c3                   	retq   

0000000000001c3d <addval_324>:
    1c3d:	8d 87 87 10 99 c2    	lea    -0x3d66ef79(%rdi),%eax
    1c43:	c3                   	retq   

0000000000001c44 <getval_267>:
    1c44:	b8 48 c9 e0 c3       	mov    $0xc3e0c948,%eax
    1c49:	c3                   	retq   

0000000000001c4a <addval_197>:
    1c4a:	8d 87 89 d1 00 d2    	lea    -0x2dff2e77(%rdi),%eax
    1c50:	c3                   	retq   

0000000000001c51 <addval_220>:
    1c51:	8d 87 89 d1 84 d2    	lea    -0x2d7b2e77(%rdi),%eax
    1c57:	c3                   	retq   

0000000000001c58 <getval_372>:
    1c58:	b8 cd bb 89 c2       	mov    $0xc289bbcd,%eax
    1c5d:	c3                   	retq   

0000000000001c5e <addval_186>:
    1c5e:	8d 87 89 c2 08 db    	lea    -0x24f73d77(%rdi),%eax
    1c64:	c3                   	retq   

0000000000001c65 <setval_113>:
    1c65:	c7 07 89 ce c4 c9    	movl   $0xc9c4ce89,(%rdi)
    1c6b:	c3                   	retq   

0000000000001c6c <setval_213>:
    1c6c:	c7 07 48 89 e0 c2    	movl   $0xc2e08948,(%rdi)
    1c72:	c3                   	retq   

0000000000001c73 <getval_175>:
    1c73:	b8 89 ce a4 d2       	mov    $0xd2a4ce89,%eax
    1c78:	c3                   	retq   

0000000000001c79 <addval_343>:
    1c79:	8d 87 48 89 e0 90    	lea    -0x6f1f76b8(%rdi),%eax
    1c7f:	c3                   	retq   

0000000000001c80 <getval_104>:
    1c80:	b8 81 ce 08 c0       	mov    $0xc008ce81,%eax
    1c85:	c3                   	retq   

0000000000001c86 <setval_401>:
    1c86:	c7 07 48 89 e0 c3    	movl   $0xc3e08948,(%rdi)
    1c8c:	c3                   	retq   

0000000000001c8d <addval_455>:
    1c8d:	8d 87 99 c2 08 c9    	lea    -0x36f73d67(%rdi),%eax
    1c93:	c3                   	retq   

0000000000001c94 <end_farm>:
    1c94:	b8 01 00 00 00       	mov    $0x1,%eax
    1c99:	c3                   	retq   

0000000000001c9a <save_char>:
    1c9a:	8b 05 64 43 20 00    	mov    0x204364(%rip),%eax        # 206004 <gets_cnt>
    1ca0:	3d ff 03 00 00       	cmp    $0x3ff,%eax
    1ca5:	7f 4a                	jg     1cf1 <save_char+0x57>
    1ca7:	89 f9                	mov    %edi,%ecx
    1ca9:	c0 e9 04             	shr    $0x4,%cl
    1cac:	8d 14 40             	lea    (%rax,%rax,2),%edx
    1caf:	4c 8d 05 2a 1b 00 00 	lea    0x1b2a(%rip),%r8        # 37e0 <trans_char>
    1cb6:	83 e1 0f             	and    $0xf,%ecx
    1cb9:	45 0f b6 0c 08       	movzbl (%r8,%rcx,1),%r9d
    1cbe:	48 8d 0d 3b 37 20 00 	lea    0x20373b(%rip),%rcx        # 205400 <gets_buf>
    1cc5:	48 63 f2             	movslq %edx,%rsi
    1cc8:	44 88 0c 31          	mov    %r9b,(%rcx,%rsi,1)
    1ccc:	8d 72 01             	lea    0x1(%rdx),%esi
    1ccf:	83 e7 0f             	and    $0xf,%edi
    1cd2:	41 0f b6 3c 38       	movzbl (%r8,%rdi,1),%edi
    1cd7:	48 63 f6             	movslq %esi,%rsi
    1cda:	40 88 3c 31          	mov    %dil,(%rcx,%rsi,1)
    1cde:	83 c2 02             	add    $0x2,%edx
    1ce1:	48 63 d2             	movslq %edx,%rdx
    1ce4:	c6 04 11 20          	movb   $0x20,(%rcx,%rdx,1)
    1ce8:	83 c0 01             	add    $0x1,%eax
    1ceb:	89 05 13 43 20 00    	mov    %eax,0x204313(%rip)        # 206004 <gets_cnt>
    1cf1:	f3 c3                	repz retq 

0000000000001cf3 <save_term>:
    1cf3:	8b 05 0b 43 20 00    	mov    0x20430b(%rip),%eax        # 206004 <gets_cnt>
    1cf9:	8d 04 40             	lea    (%rax,%rax,2),%eax
    1cfc:	48 98                	cltq   
    1cfe:	48 8d 15 fb 36 20 00 	lea    0x2036fb(%rip),%rdx        # 205400 <gets_buf>
    1d05:	c6 04 02 00          	movb   $0x0,(%rdx,%rax,1)
    1d09:	c3                   	retq   

0000000000001d0a <check_fail>:
    1d0a:	48 83 ec 08          	sub    $0x8,%rsp
    1d0e:	0f be 15 f3 42 20 00 	movsbl 0x2042f3(%rip),%edx        # 206008 <target_prefix>
    1d15:	4c 8d 05 e4 36 20 00 	lea    0x2036e4(%rip),%r8        # 205400 <gets_buf>
    1d1c:	8b 0d b6 36 20 00    	mov    0x2036b6(%rip),%ecx        # 2053d8 <check_level>
    1d22:	48 8d 35 ba 17 00 00 	lea    0x17ba(%rip),%rsi        # 34e3 <_IO_stdin_used+0x373>
    1d29:	bf 01 00 00 00       	mov    $0x1,%edi
    1d2e:	b8 00 00 00 00       	mov    $0x0,%eax
    1d33:	e8 c8 f1 ff ff       	callq  f00 <__printf_chk@plt>
    1d38:	bf 01 00 00 00       	mov    $0x1,%edi
    1d3d:	e8 fe f1 ff ff       	callq  f40 <exit@plt>

0000000000001d42 <Gets>:
    1d42:	41 54                	push   %r12
    1d44:	55                   	push   %rbp
    1d45:	53                   	push   %rbx
    1d46:	49 89 fc             	mov    %rdi,%r12
    1d49:	c7 05 b1 42 20 00 00 	movl   $0x0,0x2042b1(%rip)        # 206004 <gets_cnt>
    1d50:	00 00 00 
    1d53:	48 89 fb             	mov    %rdi,%rbx
    1d56:	eb 11                	jmp    1d69 <Gets+0x27>
    1d58:	48 8d 6b 01          	lea    0x1(%rbx),%rbp
    1d5c:	88 03                	mov    %al,(%rbx)
    1d5e:	0f b6 f8             	movzbl %al,%edi
    1d61:	e8 34 ff ff ff       	callq  1c9a <save_char>
    1d66:	48 89 eb             	mov    %rbp,%rbx
    1d69:	48 8b 3d 60 36 20 00 	mov    0x203660(%rip),%rdi        # 2053d0 <infile>
    1d70:	e8 5b f1 ff ff       	callq  ed0 <_IO_getc@plt>
    1d75:	83 f8 ff             	cmp    $0xffffffff,%eax
    1d78:	74 05                	je     1d7f <Gets+0x3d>
    1d7a:	83 f8 0a             	cmp    $0xa,%eax
    1d7d:	75 d9                	jne    1d58 <Gets+0x16>
    1d7f:	c6 03 00             	movb   $0x0,(%rbx)
    1d82:	b8 00 00 00 00       	mov    $0x0,%eax
    1d87:	e8 67 ff ff ff       	callq  1cf3 <save_term>
    1d8c:	4c 89 e0             	mov    %r12,%rax
    1d8f:	5b                   	pop    %rbx
    1d90:	5d                   	pop    %rbp
    1d91:	41 5c                	pop    %r12
    1d93:	c3                   	retq   

0000000000001d94 <notify_server>:
    1d94:	55                   	push   %rbp
    1d95:	53                   	push   %rbx
    1d96:	48 81 ec 18 40 00 00 	sub    $0x4018,%rsp
    1d9d:	64 48 8b 04 25 28 00 	mov    %fs:0x28,%rax
    1da4:	00 00 
    1da6:	48 89 84 24 08 40 00 	mov    %rax,0x4008(%rsp)
    1dad:	00 
    1dae:	31 c0                	xor    %eax,%eax
    1db0:	83 3d 31 36 20 00 00 	cmpl   $0x0,0x203631(%rip)        # 2053e8 <is_checker>
    1db7:	0f 85 d2 00 00 00    	jne    1e8f <notify_server+0xfb>
    1dbd:	89 fb                	mov    %edi,%ebx
    1dbf:	8b 05 3f 42 20 00    	mov    0x20423f(%rip),%eax        # 206004 <gets_cnt>
    1dc5:	83 c0 64             	add    $0x64,%eax
    1dc8:	3d 00 20 00 00       	cmp    $0x2000,%eax
    1dcd:	0f 8f dd 00 00 00    	jg     1eb0 <notify_server+0x11c>
    1dd3:	0f be 05 2e 42 20 00 	movsbl 0x20422e(%rip),%eax        # 206008 <target_prefix>
    1dda:	83 3d 87 35 20 00 00 	cmpl   $0x0,0x203587(%rip)        # 205368 <notify>
    1de1:	0f 84 e9 00 00 00    	je     1ed0 <notify_server+0x13c>
    1de7:	8b 15 f3 35 20 00    	mov    0x2035f3(%rip),%edx        # 2053e0 <authkey>
    1ded:	85 db                	test   %ebx,%ebx
    1def:	0f 84 e5 00 00 00    	je     1eda <notify_server+0x146>
    1df5:	48 8d 2d fd 16 00 00 	lea    0x16fd(%rip),%rbp        # 34f9 <_IO_stdin_used+0x389>
    1dfc:	48 89 e7             	mov    %rsp,%rdi
    1dff:	48 8d 0d fa 35 20 00 	lea    0x2035fa(%rip),%rcx        # 205400 <gets_buf>
    1e06:	51                   	push   %rcx
    1e07:	56                   	push   %rsi
    1e08:	50                   	push   %rax
    1e09:	52                   	push   %rdx
    1e0a:	49 89 e9             	mov    %rbp,%r9
    1e0d:	44 8b 05 fc 31 20 00 	mov    0x2031fc(%rip),%r8d        # 205010 <target_id>
    1e14:	48 8d 0d e8 16 00 00 	lea    0x16e8(%rip),%rcx        # 3503 <_IO_stdin_used+0x393>
    1e1b:	ba 00 20 00 00       	mov    $0x2000,%edx
    1e20:	be 01 00 00 00       	mov    $0x1,%esi
    1e25:	b8 00 00 00 00       	mov    $0x0,%eax
    1e2a:	e8 41 f1 ff ff       	callq  f70 <__sprintf_chk@plt>
    1e2f:	48 83 c4 20          	add    $0x20,%rsp
    1e33:	83 3d 2e 35 20 00 00 	cmpl   $0x0,0x20352e(%rip)        # 205368 <notify>
    1e3a:	0f 84 df 00 00 00    	je     1f1f <notify_server+0x18b>
    1e40:	85 db                	test   %ebx,%ebx
    1e42:	0f 84 c6 00 00 00    	je     1f0e <notify_server+0x17a>
    1e48:	48 89 e1             	mov    %rsp,%rcx
    1e4b:	4c 8d 8c 24 00 20 00 	lea    0x2000(%rsp),%r9
    1e52:	00 
    1e53:	41 b8 00 00 00 00    	mov    $0x0,%r8d
    1e59:	48 8b 15 c8 31 20 00 	mov    0x2031c8(%rip),%rdx        # 205028 <lab>
    1e60:	48 8b 35 c9 31 20 00 	mov    0x2031c9(%rip),%rsi        # 205030 <course>
    1e67:	48 8b 3d b2 31 20 00 	mov    0x2031b2(%rip),%rdi        # 205020 <user_id>
    1e6e:	e8 af 11 00 00       	callq  3022 <driver_post>
    1e73:	85 c0                	test   %eax,%eax
    1e75:	78 6f                	js     1ee6 <notify_server+0x152>
    1e77:	48 8d 3d ca 17 00 00 	lea    0x17ca(%rip),%rdi        # 3648 <_IO_stdin_used+0x4d8>
    1e7e:	e8 5d ef ff ff       	callq  de0 <puts@plt>
    1e83:	48 8d 3d a1 16 00 00 	lea    0x16a1(%rip),%rdi        # 352b <_IO_stdin_used+0x3bb>
    1e8a:	e8 51 ef ff ff       	callq  de0 <puts@plt>
    1e8f:	48 8b 84 24 08 40 00 	mov    0x4008(%rsp),%rax
    1e96:	00 
    1e97:	64 48 33 04 25 28 00 	xor    %fs:0x28,%rax
    1e9e:	00 00 
    1ea0:	0f 85 07 01 00 00    	jne    1fad <notify_server+0x219>
    1ea6:	48 81 c4 18 40 00 00 	add    $0x4018,%rsp
    1ead:	5b                   	pop    %rbx
    1eae:	5d                   	pop    %rbp
    1eaf:	c3                   	retq   
    1eb0:	48 8d 35 61 17 00 00 	lea    0x1761(%rip),%rsi        # 3618 <_IO_stdin_used+0x4a8>
    1eb7:	bf 01 00 00 00       	mov    $0x1,%edi
    1ebc:	b8 00 00 00 00       	mov    $0x0,%eax
    1ec1:	e8 3a f0 ff ff       	callq  f00 <__printf_chk@plt>
    1ec6:	bf 01 00 00 00       	mov    $0x1,%edi
    1ecb:	e8 70 f0 ff ff       	callq  f40 <exit@plt>
    1ed0:	ba ff ff ff ff       	mov    $0xffffffff,%edx
    1ed5:	e9 13 ff ff ff       	jmpq   1ded <notify_server+0x59>
    1eda:	48 8d 2d 1d 16 00 00 	lea    0x161d(%rip),%rbp        # 34fe <_IO_stdin_used+0x38e>
    1ee1:	e9 16 ff ff ff       	jmpq   1dfc <notify_server+0x68>
    1ee6:	48 8d 94 24 00 20 00 	lea    0x2000(%rsp),%rdx
    1eed:	00 
    1eee:	48 8d 35 2a 16 00 00 	lea    0x162a(%rip),%rsi        # 351f <_IO_stdin_used+0x3af>
    1ef5:	bf 01 00 00 00       	mov    $0x1,%edi
    1efa:	b8 00 00 00 00       	mov    $0x0,%eax
    1eff:	e8 fc ef ff ff       	callq  f00 <__printf_chk@plt>
    1f04:	bf 01 00 00 00       	mov    $0x1,%edi
    1f09:	e8 32 f0 ff ff       	callq  f40 <exit@plt>
    1f0e:	48 8d 3d 20 16 00 00 	lea    0x1620(%rip),%rdi        # 3535 <_IO_stdin_used+0x3c5>
    1f15:	e8 c6 ee ff ff       	callq  de0 <puts@plt>
    1f1a:	e9 70 ff ff ff       	jmpq   1e8f <notify_server+0xfb>
    1f1f:	48 89 ea             	mov    %rbp,%rdx
    1f22:	48 8d 35 57 17 00 00 	lea    0x1757(%rip),%rsi        # 3680 <_IO_stdin_used+0x510>
    1f29:	bf 01 00 00 00       	mov    $0x1,%edi
    1f2e:	b8 00 00 00 00       	mov    $0x0,%eax
    1f33:	e8 c8 ef ff ff       	callq  f00 <__printf_chk@plt>
    1f38:	48 8b 15 e1 30 20 00 	mov    0x2030e1(%rip),%rdx        # 205020 <user_id>
    1f3f:	48 8d 35 f6 15 00 00 	lea    0x15f6(%rip),%rsi        # 353c <_IO_stdin_used+0x3cc>
    1f46:	bf 01 00 00 00       	mov    $0x1,%edi
    1f4b:	b8 00 00 00 00       	mov    $0x0,%eax
    1f50:	e8 ab ef ff ff       	callq  f00 <__printf_chk@plt>
    1f55:	48 8b 15 d4 30 20 00 	mov    0x2030d4(%rip),%rdx        # 205030 <course>
    1f5c:	48 8d 35 e6 15 00 00 	lea    0x15e6(%rip),%rsi        # 3549 <_IO_stdin_used+0x3d9>
    1f63:	bf 01 00 00 00       	mov    $0x1,%edi
    1f68:	b8 00 00 00 00       	mov    $0x0,%eax
    1f6d:	e8 8e ef ff ff       	callq  f00 <__printf_chk@plt>
    1f72:	48 8b 15 af 30 20 00 	mov    0x2030af(%rip),%rdx        # 205028 <lab>
    1f79:	48 8d 35 d5 15 00 00 	lea    0x15d5(%rip),%rsi        # 3555 <_IO_stdin_used+0x3e5>
    1f80:	bf 01 00 00 00       	mov    $0x1,%edi
    1f85:	b8 00 00 00 00       	mov    $0x0,%eax
    1f8a:	e8 71 ef ff ff       	callq  f00 <__printf_chk@plt>
    1f8f:	48 89 e2             	mov    %rsp,%rdx
    1f92:	48 8d 35 c5 15 00 00 	lea    0x15c5(%rip),%rsi        # 355e <_IO_stdin_used+0x3ee>
    1f99:	bf 01 00 00 00       	mov    $0x1,%edi
    1f9e:	b8 00 00 00 00       	mov    $0x0,%eax
    1fa3:	e8 58 ef ff ff       	callq  f00 <__printf_chk@plt>
    1fa8:	e9 e2 fe ff ff       	jmpq   1e8f <notify_server+0xfb>
    1fad:	e8 4e ee ff ff       	callq  e00 <__stack_chk_fail@plt>

0000000000001fb2 <validate>:
    1fb2:	53                   	push   %rbx
    1fb3:	89 fb                	mov    %edi,%ebx
    1fb5:	83 3d 2c 34 20 00 00 	cmpl   $0x0,0x20342c(%rip)        # 2053e8 <is_checker>
    1fbc:	74 72                	je     2030 <validate+0x7e>
    1fbe:	39 3d 18 34 20 00    	cmp    %edi,0x203418(%rip)        # 2053dc <vlevel>
    1fc4:	75 32                	jne    1ff8 <validate+0x46>
    1fc6:	8b 15 0c 34 20 00    	mov    0x20340c(%rip),%edx        # 2053d8 <check_level>
    1fcc:	39 fa                	cmp    %edi,%edx
    1fce:	75 3e                	jne    200e <validate+0x5c>
    1fd0:	0f be 15 31 40 20 00 	movsbl 0x204031(%rip),%edx        # 206008 <target_prefix>
    1fd7:	4c 8d 05 22 34 20 00 	lea    0x203422(%rip),%r8        # 205400 <gets_buf>
    1fde:	89 f9                	mov    %edi,%ecx
    1fe0:	48 8d 35 a1 15 00 00 	lea    0x15a1(%rip),%rsi        # 3588 <_IO_stdin_used+0x418>
    1fe7:	bf 01 00 00 00       	mov    $0x1,%edi
    1fec:	b8 00 00 00 00       	mov    $0x0,%eax
    1ff1:	e8 0a ef ff ff       	callq  f00 <__printf_chk@plt>
    1ff6:	5b                   	pop    %rbx
    1ff7:	c3                   	retq   
    1ff8:	48 8d 3d 6b 15 00 00 	lea    0x156b(%rip),%rdi        # 356a <_IO_stdin_used+0x3fa>
    1fff:	e8 dc ed ff ff       	callq  de0 <puts@plt>
    2004:	b8 00 00 00 00       	mov    $0x0,%eax
    2009:	e8 fc fc ff ff       	callq  1d0a <check_fail>
    200e:	89 f9                	mov    %edi,%ecx
    2010:	48 8d 35 91 16 00 00 	lea    0x1691(%rip),%rsi        # 36a8 <_IO_stdin_used+0x538>
    2017:	bf 01 00 00 00       	mov    $0x1,%edi
    201c:	b8 00 00 00 00       	mov    $0x0,%eax
    2021:	e8 da ee ff ff       	callq  f00 <__printf_chk@plt>
    2026:	b8 00 00 00 00       	mov    $0x0,%eax
    202b:	e8 da fc ff ff       	callq  1d0a <check_fail>
    2030:	39 3d a6 33 20 00    	cmp    %edi,0x2033a6(%rip)        # 2053dc <vlevel>
    2036:	74 1a                	je     2052 <validate+0xa0>
    2038:	48 8d 3d 2b 15 00 00 	lea    0x152b(%rip),%rdi        # 356a <_IO_stdin_used+0x3fa>
    203f:	e8 9c ed ff ff       	callq  de0 <puts@plt>
    2044:	89 de                	mov    %ebx,%esi
    2046:	bf 00 00 00 00       	mov    $0x0,%edi
    204b:	e8 44 fd ff ff       	callq  1d94 <notify_server>
    2050:	eb a4                	jmp    1ff6 <validate+0x44>
    2052:	0f be 0d af 3f 20 00 	movsbl 0x203faf(%rip),%ecx        # 206008 <target_prefix>
    2059:	89 fa                	mov    %edi,%edx
    205b:	48 8d 35 6e 16 00 00 	lea    0x166e(%rip),%rsi        # 36d0 <_IO_stdin_used+0x560>
    2062:	bf 01 00 00 00       	mov    $0x1,%edi
    2067:	b8 00 00 00 00       	mov    $0x0,%eax
    206c:	e8 8f ee ff ff       	callq  f00 <__printf_chk@plt>
    2071:	89 de                	mov    %ebx,%esi
    2073:	bf 01 00 00 00       	mov    $0x1,%edi
    2078:	e8 17 fd ff ff       	callq  1d94 <notify_server>
    207d:	e9 74 ff ff ff       	jmpq   1ff6 <validate+0x44>

0000000000002082 <fail>:
    2082:	48 83 ec 08          	sub    $0x8,%rsp
    2086:	83 3d 5b 33 20 00 00 	cmpl   $0x0,0x20335b(%rip)        # 2053e8 <is_checker>
    208d:	75 11                	jne    20a0 <fail+0x1e>
    208f:	89 fe                	mov    %edi,%esi
    2091:	bf 00 00 00 00       	mov    $0x0,%edi
    2096:	e8 f9 fc ff ff       	callq  1d94 <notify_server>
    209b:	48 83 c4 08          	add    $0x8,%rsp
    209f:	c3                   	retq   
    20a0:	b8 00 00 00 00       	mov    $0x0,%eax
    20a5:	e8 60 fc ff ff       	callq  1d0a <check_fail>

00000000000020aa <bushandler>:
    20aa:	48 83 ec 08          	sub    $0x8,%rsp
    20ae:	83 3d 33 33 20 00 00 	cmpl   $0x0,0x203333(%rip)        # 2053e8 <is_checker>
    20b5:	74 16                	je     20cd <bushandler+0x23>
    20b7:	48 8d 3d df 14 00 00 	lea    0x14df(%rip),%rdi        # 359d <_IO_stdin_used+0x42d>
    20be:	e8 1d ed ff ff       	callq  de0 <puts@plt>
    20c3:	b8 00 00 00 00       	mov    $0x0,%eax
    20c8:	e8 3d fc ff ff       	callq  1d0a <check_fail>
    20cd:	48 8d 3d 34 16 00 00 	lea    0x1634(%rip),%rdi        # 3708 <_IO_stdin_used+0x598>
    20d4:	e8 07 ed ff ff       	callq  de0 <puts@plt>
    20d9:	48 8d 3d c7 14 00 00 	lea    0x14c7(%rip),%rdi        # 35a7 <_IO_stdin_used+0x437>
    20e0:	e8 fb ec ff ff       	callq  de0 <puts@plt>
    20e5:	be 00 00 00 00       	mov    $0x0,%esi
    20ea:	bf 00 00 00 00       	mov    $0x0,%edi
    20ef:	e8 a0 fc ff ff       	callq  1d94 <notify_server>
    20f4:	bf 01 00 00 00       	mov    $0x1,%edi
    20f9:	e8 42 ee ff ff       	callq  f40 <exit@plt>

00000000000020fe <seghandler>:
    20fe:	48 83 ec 08          	sub    $0x8,%rsp
    2102:	83 3d df 32 20 00 00 	cmpl   $0x0,0x2032df(%rip)        # 2053e8 <is_checker>
    2109:	74 16                	je     2121 <seghandler+0x23>
    210b:	48 8d 3d ab 14 00 00 	lea    0x14ab(%rip),%rdi        # 35bd <_IO_stdin_used+0x44d>
    2112:	e8 c9 ec ff ff       	callq  de0 <puts@plt>
    2117:	b8 00 00 00 00       	mov    $0x0,%eax
    211c:	e8 e9 fb ff ff       	callq  1d0a <check_fail>
    2121:	48 8d 3d 00 16 00 00 	lea    0x1600(%rip),%rdi        # 3728 <_IO_stdin_used+0x5b8>
    2128:	e8 b3 ec ff ff       	callq  de0 <puts@plt>
    212d:	48 8d 3d 73 14 00 00 	lea    0x1473(%rip),%rdi        # 35a7 <_IO_stdin_used+0x437>
    2134:	e8 a7 ec ff ff       	callq  de0 <puts@plt>
    2139:	be 00 00 00 00       	mov    $0x0,%esi
    213e:	bf 00 00 00 00       	mov    $0x0,%edi
    2143:	e8 4c fc ff ff       	callq  1d94 <notify_server>
    2148:	bf 01 00 00 00       	mov    $0x1,%edi
    214d:	e8 ee ed ff ff       	callq  f40 <exit@plt>

0000000000002152 <illegalhandler>:
    2152:	48 83 ec 08          	sub    $0x8,%rsp
    2156:	83 3d 8b 32 20 00 00 	cmpl   $0x0,0x20328b(%rip)        # 2053e8 <is_checker>
    215d:	74 16                	je     2175 <illegalhandler+0x23>
    215f:	48 8d 3d 6a 14 00 00 	lea    0x146a(%rip),%rdi        # 35d0 <_IO_stdin_used+0x460>
    2166:	e8 75 ec ff ff       	callq  de0 <puts@plt>
    216b:	b8 00 00 00 00       	mov    $0x0,%eax
    2170:	e8 95 fb ff ff       	callq  1d0a <check_fail>
    2175:	48 8d 3d d4 15 00 00 	lea    0x15d4(%rip),%rdi        # 3750 <_IO_stdin_used+0x5e0>
    217c:	e8 5f ec ff ff       	callq  de0 <puts@plt>
    2181:	48 8d 3d 1f 14 00 00 	lea    0x141f(%rip),%rdi        # 35a7 <_IO_stdin_used+0x437>
    2188:	e8 53 ec ff ff       	callq  de0 <puts@plt>
    218d:	be 00 00 00 00       	mov    $0x0,%esi
    2192:	bf 00 00 00 00       	mov    $0x0,%edi
    2197:	e8 f8 fb ff ff       	callq  1d94 <notify_server>
    219c:	bf 01 00 00 00       	mov    $0x1,%edi
    21a1:	e8 9a ed ff ff       	callq  f40 <exit@plt>

00000000000021a6 <sigalrmhandler>:
    21a6:	48 83 ec 08          	sub    $0x8,%rsp
    21aa:	83 3d 37 32 20 00 00 	cmpl   $0x0,0x203237(%rip)        # 2053e8 <is_checker>
    21b1:	74 16                	je     21c9 <sigalrmhandler+0x23>
    21b3:	48 8d 3d 2a 14 00 00 	lea    0x142a(%rip),%rdi        # 35e4 <_IO_stdin_used+0x474>
    21ba:	e8 21 ec ff ff       	callq  de0 <puts@plt>
    21bf:	b8 00 00 00 00       	mov    $0x0,%eax
    21c4:	e8 41 fb ff ff       	callq  1d0a <check_fail>
    21c9:	ba 05 00 00 00       	mov    $0x5,%edx
    21ce:	48 8d 35 ab 15 00 00 	lea    0x15ab(%rip),%rsi        # 3780 <_IO_stdin_used+0x610>
    21d5:	bf 01 00 00 00       	mov    $0x1,%edi
    21da:	b8 00 00 00 00       	mov    $0x0,%eax
    21df:	e8 1c ed ff ff       	callq  f00 <__printf_chk@plt>
    21e4:	be 00 00 00 00       	mov    $0x0,%esi
    21e9:	bf 00 00 00 00       	mov    $0x0,%edi
    21ee:	e8 a1 fb ff ff       	callq  1d94 <notify_server>
    21f3:	bf 01 00 00 00       	mov    $0x1,%edi
    21f8:	e8 43 ed ff ff       	callq  f40 <exit@plt>

00000000000021fd <launch>:
    21fd:	55                   	push   %rbp
    21fe:	48 89 e5             	mov    %rsp,%rbp
    2201:	48 83 ec 10          	sub    $0x10,%rsp
    2205:	48 89 fa             	mov    %rdi,%rdx
    2208:	64 48 8b 04 25 28 00 	mov    %fs:0x28,%rax
    220f:	00 00 
    2211:	48 89 45 f8          	mov    %rax,-0x8(%rbp)
    2215:	31 c0                	xor    %eax,%eax
    2217:	48 8d 47 1e          	lea    0x1e(%rdi),%rax
    221b:	48 83 e0 f0          	and    $0xfffffffffffffff0,%rax
    221f:	48 29 c4             	sub    %rax,%rsp
    2222:	48 8d 7c 24 0f       	lea    0xf(%rsp),%rdi
    2227:	48 83 e7 f0          	and    $0xfffffffffffffff0,%rdi
    222b:	be f4 00 00 00       	mov    $0xf4,%esi
    2230:	e8 eb eb ff ff       	callq  e20 <memset@plt>
    2235:	48 8b 05 44 31 20 00 	mov    0x203144(%rip),%rax        # 205380 <stdin@@GLIBC_2.2.5>
    223c:	48 39 05 8d 31 20 00 	cmp    %rax,0x20318d(%rip)        # 2053d0 <infile>
    2243:	74 3a                	je     227f <launch+0x82>
    2245:	c7 05 8d 31 20 00 00 	movl   $0x0,0x20318d(%rip)        # 2053dc <vlevel>
    224c:	00 00 00 
    224f:	b8 00 00 00 00       	mov    $0x0,%eax
    2254:	e8 f2 f8 ff ff       	callq  1b4b <test>
    2259:	83 3d 88 31 20 00 00 	cmpl   $0x0,0x203188(%rip)        # 2053e8 <is_checker>
    2260:	75 35                	jne    2297 <launch+0x9a>
    2262:	48 8d 3d 9b 13 00 00 	lea    0x139b(%rip),%rdi        # 3604 <_IO_stdin_used+0x494>
    2269:	e8 72 eb ff ff       	callq  de0 <puts@plt>
    226e:	48 8b 45 f8          	mov    -0x8(%rbp),%rax
    2272:	64 48 33 04 25 28 00 	xor    %fs:0x28,%rax
    2279:	00 00 
    227b:	75 30                	jne    22ad <launch+0xb0>
    227d:	c9                   	leaveq 
    227e:	c3                   	retq   
    227f:	48 8d 35 66 13 00 00 	lea    0x1366(%rip),%rsi        # 35ec <_IO_stdin_used+0x47c>
    2286:	bf 01 00 00 00       	mov    $0x1,%edi
    228b:	b8 00 00 00 00       	mov    $0x0,%eax
    2290:	e8 6b ec ff ff       	callq  f00 <__printf_chk@plt>
    2295:	eb ae                	jmp    2245 <launch+0x48>
    2297:	48 8d 3d 5b 13 00 00 	lea    0x135b(%rip),%rdi        # 35f9 <_IO_stdin_used+0x489>
    229e:	e8 3d eb ff ff       	callq  de0 <puts@plt>
    22a3:	b8 00 00 00 00       	mov    $0x0,%eax
    22a8:	e8 5d fa ff ff       	callq  1d0a <check_fail>
    22ad:	e8 4e eb ff ff       	callq  e00 <__stack_chk_fail@plt>

00000000000022b2 <stable_launch>:
    22b2:	53                   	push   %rbx
    22b3:	48 89 3d 0e 31 20 00 	mov    %rdi,0x20310e(%rip)        # 2053c8 <global_offset>
    22ba:	41 b9 00 00 00 00    	mov    $0x0,%r9d
    22c0:	41 b8 00 00 00 00    	mov    $0x0,%r8d
    22c6:	b9 32 01 00 00       	mov    $0x132,%ecx
    22cb:	ba 07 00 00 00       	mov    $0x7,%edx
    22d0:	be 00 00 10 00       	mov    $0x100000,%esi
    22d5:	bf 00 60 58 55       	mov    $0x55586000,%edi
    22da:	e8 31 eb ff ff       	callq  e10 <mmap@plt>
    22df:	48 89 c3             	mov    %rax,%rbx
    22e2:	48 3d 00 60 58 55    	cmp    $0x55586000,%rax
    22e8:	75 43                	jne    232d <stable_launch+0x7b>
    22ea:	48 8d 90 f8 ff 0f 00 	lea    0xffff8(%rax),%rdx
    22f1:	48 89 15 18 3d 20 00 	mov    %rdx,0x203d18(%rip)        # 206010 <stack_top>
    22f8:	48 89 e0             	mov    %rsp,%rax
    22fb:	48 89 d4             	mov    %rdx,%rsp
    22fe:	48 89 c2             	mov    %rax,%rdx
    2301:	48 89 15 b8 30 20 00 	mov    %rdx,0x2030b8(%rip)        # 2053c0 <global_save_stack>
    2308:	48 8b 3d b9 30 20 00 	mov    0x2030b9(%rip),%rdi        # 2053c8 <global_offset>
    230f:	e8 e9 fe ff ff       	callq  21fd <launch>
    2314:	48 8b 05 a5 30 20 00 	mov    0x2030a5(%rip),%rax        # 2053c0 <global_save_stack>
    231b:	48 89 c4             	mov    %rax,%rsp
    231e:	be 00 00 10 00       	mov    $0x100000,%esi
    2323:	48 89 df             	mov    %rbx,%rdi
    2326:	e8 c5 eb ff ff       	callq  ef0 <munmap@plt>
    232b:	5b                   	pop    %rbx
    232c:	c3                   	retq   
    232d:	be 00 00 10 00       	mov    $0x100000,%esi
    2332:	48 89 c7             	mov    %rax,%rdi
    2335:	e8 b6 eb ff ff       	callq  ef0 <munmap@plt>
    233a:	b9 00 60 58 55       	mov    $0x55586000,%ecx
    233f:	48 8d 15 72 14 00 00 	lea    0x1472(%rip),%rdx        # 37b8 <_IO_stdin_used+0x648>
    2346:	be 01 00 00 00       	mov    $0x1,%esi
    234b:	48 8b 3d 4e 30 20 00 	mov    0x20304e(%rip),%rdi        # 2053a0 <stderr@@GLIBC_2.2.5>
    2352:	b8 00 00 00 00       	mov    $0x0,%eax
    2357:	e8 04 ec ff ff       	callq  f60 <__fprintf_chk@plt>
    235c:	bf 01 00 00 00       	mov    $0x1,%edi
    2361:	e8 da eb ff ff       	callq  f40 <exit@plt>

0000000000002366 <rio_readinitb>:
    2366:	89 37                	mov    %esi,(%rdi)
    2368:	c7 47 04 00 00 00 00 	movl   $0x0,0x4(%rdi)
    236f:	48 8d 47 10          	lea    0x10(%rdi),%rax
    2373:	48 89 47 08          	mov    %rax,0x8(%rdi)
    2377:	c3                   	retq   

0000000000002378 <sigalrm_handler>:
    2378:	48 83 ec 08          	sub    $0x8,%rsp
    237c:	b9 00 00 00 00       	mov    $0x0,%ecx
    2381:	48 8d 15 68 14 00 00 	lea    0x1468(%rip),%rdx        # 37f0 <trans_char+0x10>
    2388:	be 01 00 00 00       	mov    $0x1,%esi
    238d:	48 8b 3d 0c 30 20 00 	mov    0x20300c(%rip),%rdi        # 2053a0 <stderr@@GLIBC_2.2.5>
    2394:	b8 00 00 00 00       	mov    $0x0,%eax
    2399:	e8 c2 eb ff ff       	callq  f60 <__fprintf_chk@plt>
    239e:	bf 01 00 00 00       	mov    $0x1,%edi
    23a3:	e8 98 eb ff ff       	callq  f40 <exit@plt>

00000000000023a8 <rio_writen>:
    23a8:	41 55                	push   %r13
    23aa:	41 54                	push   %r12
    23ac:	55                   	push   %rbp
    23ad:	53                   	push   %rbx
    23ae:	48 83 ec 08          	sub    $0x8,%rsp
    23b2:	41 89 fc             	mov    %edi,%r12d
    23b5:	48 89 f5             	mov    %rsi,%rbp
    23b8:	49 89 d5             	mov    %rdx,%r13
    23bb:	48 89 d3             	mov    %rdx,%rbx
    23be:	eb 06                	jmp    23c6 <rio_writen+0x1e>
    23c0:	48 29 c3             	sub    %rax,%rbx
    23c3:	48 01 c5             	add    %rax,%rbp
    23c6:	48 85 db             	test   %rbx,%rbx
    23c9:	74 24                	je     23ef <rio_writen+0x47>
    23cb:	48 89 da             	mov    %rbx,%rdx
    23ce:	48 89 ee             	mov    %rbp,%rsi
    23d1:	44 89 e7             	mov    %r12d,%edi
    23d4:	e8 17 ea ff ff       	callq  df0 <write@plt>
    23d9:	48 85 c0             	test   %rax,%rax
    23dc:	7f e2                	jg     23c0 <rio_writen+0x18>
    23de:	e8 bd e9 ff ff       	callq  da0 <__errno_location@plt>
    23e3:	83 38 04             	cmpl   $0x4,(%rax)
    23e6:	75 15                	jne    23fd <rio_writen+0x55>
    23e8:	b8 00 00 00 00       	mov    $0x0,%eax
    23ed:	eb d1                	jmp    23c0 <rio_writen+0x18>
    23ef:	4c 89 e8             	mov    %r13,%rax
    23f2:	48 83 c4 08          	add    $0x8,%rsp
    23f6:	5b                   	pop    %rbx
    23f7:	5d                   	pop    %rbp
    23f8:	41 5c                	pop    %r12
    23fa:	41 5d                	pop    %r13
    23fc:	c3                   	retq   
    23fd:	48 c7 c0 ff ff ff ff 	mov    $0xffffffffffffffff,%rax
    2404:	eb ec                	jmp    23f2 <rio_writen+0x4a>

0000000000002406 <rio_read>:
    2406:	41 55                	push   %r13
    2408:	41 54                	push   %r12
    240a:	55                   	push   %rbp
    240b:	53                   	push   %rbx
    240c:	48 83 ec 08          	sub    $0x8,%rsp
    2410:	48 89 fb             	mov    %rdi,%rbx
    2413:	49 89 f5             	mov    %rsi,%r13
    2416:	49 89 d4             	mov    %rdx,%r12
    2419:	eb 0a                	jmp    2425 <rio_read+0x1f>
    241b:	e8 80 e9 ff ff       	callq  da0 <__errno_location@plt>
    2420:	83 38 04             	cmpl   $0x4,(%rax)
    2423:	75 5c                	jne    2481 <rio_read+0x7b>
    2425:	8b 6b 04             	mov    0x4(%rbx),%ebp
    2428:	85 ed                	test   %ebp,%ebp
    242a:	7f 24                	jg     2450 <rio_read+0x4a>
    242c:	48 8d 6b 10          	lea    0x10(%rbx),%rbp
    2430:	8b 3b                	mov    (%rbx),%edi
    2432:	ba 00 20 00 00       	mov    $0x2000,%edx
    2437:	48 89 ee             	mov    %rbp,%rsi
    243a:	e8 11 ea ff ff       	callq  e50 <read@plt>
    243f:	89 43 04             	mov    %eax,0x4(%rbx)
    2442:	85 c0                	test   %eax,%eax
    2444:	78 d5                	js     241b <rio_read+0x15>
    2446:	85 c0                	test   %eax,%eax
    2448:	74 40                	je     248a <rio_read+0x84>
    244a:	48 89 6b 08          	mov    %rbp,0x8(%rbx)
    244e:	eb d5                	jmp    2425 <rio_read+0x1f>
    2450:	89 e8                	mov    %ebp,%eax
    2452:	4c 39 e0             	cmp    %r12,%rax
    2455:	72 03                	jb     245a <rio_read+0x54>
    2457:	44 89 e5             	mov    %r12d,%ebp
    245a:	4c 63 e5             	movslq %ebp,%r12
    245d:	48 8b 73 08          	mov    0x8(%rbx),%rsi
    2461:	4c 89 e2             	mov    %r12,%rdx
    2464:	4c 89 ef             	mov    %r13,%rdi
    2467:	e8 34 ea ff ff       	callq  ea0 <memcpy@plt>
    246c:	4c 01 63 08          	add    %r12,0x8(%rbx)
    2470:	29 6b 04             	sub    %ebp,0x4(%rbx)
    2473:	4c 89 e0             	mov    %r12,%rax
    2476:	48 83 c4 08          	add    $0x8,%rsp
    247a:	5b                   	pop    %rbx
    247b:	5d                   	pop    %rbp
    247c:	41 5c                	pop    %r12
    247e:	41 5d                	pop    %r13
    2480:	c3                   	retq   
    2481:	48 c7 c0 ff ff ff ff 	mov    $0xffffffffffffffff,%rax
    2488:	eb ec                	jmp    2476 <rio_read+0x70>
    248a:	b8 00 00 00 00       	mov    $0x0,%eax
    248f:	eb e5                	jmp    2476 <rio_read+0x70>

0000000000002491 <rio_readlineb>:
    2491:	41 55                	push   %r13
    2493:	41 54                	push   %r12
    2495:	55                   	push   %rbp
    2496:	53                   	push   %rbx
    2497:	48 83 ec 18          	sub    $0x18,%rsp
    249b:	49 89 fd             	mov    %rdi,%r13
    249e:	48 89 f5             	mov    %rsi,%rbp
    24a1:	49 89 d4             	mov    %rdx,%r12
    24a4:	64 48 8b 04 25 28 00 	mov    %fs:0x28,%rax
    24ab:	00 00 
    24ad:	48 89 44 24 08       	mov    %rax,0x8(%rsp)
    24b2:	31 c0                	xor    %eax,%eax
    24b4:	bb 01 00 00 00       	mov    $0x1,%ebx
    24b9:	4c 39 e3             	cmp    %r12,%rbx
    24bc:	73 47                	jae    2505 <rio_readlineb+0x74>
    24be:	48 8d 74 24 07       	lea    0x7(%rsp),%rsi
    24c3:	ba 01 00 00 00       	mov    $0x1,%edx
    24c8:	4c 89 ef             	mov    %r13,%rdi
    24cb:	e8 36 ff ff ff       	callq  2406 <rio_read>
    24d0:	83 f8 01             	cmp    $0x1,%eax
    24d3:	75 1c                	jne    24f1 <rio_readlineb+0x60>
    24d5:	48 8d 45 01          	lea    0x1(%rbp),%rax
    24d9:	0f b6 54 24 07       	movzbl 0x7(%rsp),%edx
    24de:	88 55 00             	mov    %dl,0x0(%rbp)
    24e1:	80 7c 24 07 0a       	cmpb   $0xa,0x7(%rsp)
    24e6:	74 1a                	je     2502 <rio_readlineb+0x71>
    24e8:	48 83 c3 01          	add    $0x1,%rbx
    24ec:	48 89 c5             	mov    %rax,%rbp
    24ef:	eb c8                	jmp    24b9 <rio_readlineb+0x28>
    24f1:	85 c0                	test   %eax,%eax
    24f3:	75 32                	jne    2527 <rio_readlineb+0x96>
    24f5:	48 83 fb 01          	cmp    $0x1,%rbx
    24f9:	75 0a                	jne    2505 <rio_readlineb+0x74>
    24fb:	b8 00 00 00 00       	mov    $0x0,%eax
    2500:	eb 0a                	jmp    250c <rio_readlineb+0x7b>
    2502:	48 89 c5             	mov    %rax,%rbp
    2505:	c6 45 00 00          	movb   $0x0,0x0(%rbp)
    2509:	48 89 d8             	mov    %rbx,%rax
    250c:	48 8b 4c 24 08       	mov    0x8(%rsp),%rcx
    2511:	64 48 33 0c 25 28 00 	xor    %fs:0x28,%rcx
    2518:	00 00 
    251a:	75 14                	jne    2530 <rio_readlineb+0x9f>
    251c:	48 83 c4 18          	add    $0x18,%rsp
    2520:	5b                   	pop    %rbx
    2521:	5d                   	pop    %rbp
    2522:	41 5c                	pop    %r12
    2524:	41 5d                	pop    %r13
    2526:	c3                   	retq   
    2527:	48 c7 c0 ff ff ff ff 	mov    $0xffffffffffffffff,%rax
    252e:	eb dc                	jmp    250c <rio_readlineb+0x7b>
    2530:	e8 cb e8 ff ff       	callq  e00 <__stack_chk_fail@plt>

0000000000002535 <urlencode>:
    2535:	41 54                	push   %r12
    2537:	55                   	push   %rbp
    2538:	53                   	push   %rbx
    2539:	48 83 ec 10          	sub    $0x10,%rsp
    253d:	48 89 fb             	mov    %rdi,%rbx
    2540:	48 89 f5             	mov    %rsi,%rbp
    2543:	64 48 8b 04 25 28 00 	mov    %fs:0x28,%rax
    254a:	00 00 
    254c:	48 89 44 24 08       	mov    %rax,0x8(%rsp)
    2551:	31 c0                	xor    %eax,%eax
    2553:	48 c7 c1 ff ff ff ff 	mov    $0xffffffffffffffff,%rcx
    255a:	f2 ae                	repnz scas %es:(%rdi),%al
    255c:	48 89 ce             	mov    %rcx,%rsi
    255f:	48 f7 d6             	not    %rsi
    2562:	8d 46 ff             	lea    -0x1(%rsi),%eax
    2565:	eb 0f                	jmp    2576 <urlencode+0x41>
    2567:	44 88 45 00          	mov    %r8b,0x0(%rbp)
    256b:	48 8d 6d 01          	lea    0x1(%rbp),%rbp
    256f:	48 83 c3 01          	add    $0x1,%rbx
    2573:	44 89 e0             	mov    %r12d,%eax
    2576:	44 8d 60 ff          	lea    -0x1(%rax),%r12d
    257a:	85 c0                	test   %eax,%eax
    257c:	0f 84 a8 00 00 00    	je     262a <urlencode+0xf5>
    2582:	44 0f b6 03          	movzbl (%rbx),%r8d
    2586:	41 80 f8 2a          	cmp    $0x2a,%r8b
    258a:	0f 94 c2             	sete   %dl
    258d:	41 80 f8 2d          	cmp    $0x2d,%r8b
    2591:	0f 94 c0             	sete   %al
    2594:	08 c2                	or     %al,%dl
    2596:	75 cf                	jne    2567 <urlencode+0x32>
    2598:	41 80 f8 2e          	cmp    $0x2e,%r8b
    259c:	74 c9                	je     2567 <urlencode+0x32>
    259e:	41 80 f8 5f          	cmp    $0x5f,%r8b
    25a2:	74 c3                	je     2567 <urlencode+0x32>
    25a4:	41 8d 40 d0          	lea    -0x30(%r8),%eax
    25a8:	3c 09                	cmp    $0x9,%al
    25aa:	76 bb                	jbe    2567 <urlencode+0x32>
    25ac:	41 8d 40 bf          	lea    -0x41(%r8),%eax
    25b0:	3c 19                	cmp    $0x19,%al
    25b2:	76 b3                	jbe    2567 <urlencode+0x32>
    25b4:	41 8d 40 9f          	lea    -0x61(%r8),%eax
    25b8:	3c 19                	cmp    $0x19,%al
    25ba:	76 ab                	jbe    2567 <urlencode+0x32>
    25bc:	41 80 f8 20          	cmp    $0x20,%r8b
    25c0:	74 56                	je     2618 <urlencode+0xe3>
    25c2:	41 8d 40 e0          	lea    -0x20(%r8),%eax
    25c6:	3c 5f                	cmp    $0x5f,%al
    25c8:	0f 96 c2             	setbe  %dl
    25cb:	41 80 f8 09          	cmp    $0x9,%r8b
    25cf:	0f 94 c0             	sete   %al
    25d2:	08 c2                	or     %al,%dl
    25d4:	74 4f                	je     2625 <urlencode+0xf0>
    25d6:	48 89 e7             	mov    %rsp,%rdi
    25d9:	45 0f b6 c0          	movzbl %r8b,%r8d
    25dd:	48 8d 0d a4 12 00 00 	lea    0x12a4(%rip),%rcx        # 3888 <trans_char+0xa8>
    25e4:	ba 08 00 00 00       	mov    $0x8,%edx
    25e9:	be 01 00 00 00       	mov    $0x1,%esi
    25ee:	b8 00 00 00 00       	mov    $0x0,%eax
    25f3:	e8 78 e9 ff ff       	callq  f70 <__sprintf_chk@plt>
    25f8:	0f b6 04 24          	movzbl (%rsp),%eax
    25fc:	88 45 00             	mov    %al,0x0(%rbp)
    25ff:	0f b6 44 24 01       	movzbl 0x1(%rsp),%eax
    2604:	88 45 01             	mov    %al,0x1(%rbp)
    2607:	0f b6 44 24 02       	movzbl 0x2(%rsp),%eax
    260c:	88 45 02             	mov    %al,0x2(%rbp)
    260f:	48 8d 6d 03          	lea    0x3(%rbp),%rbp
    2613:	e9 57 ff ff ff       	jmpq   256f <urlencode+0x3a>
    2618:	c6 45 00 2b          	movb   $0x2b,0x0(%rbp)
    261c:	48 8d 6d 01          	lea    0x1(%rbp),%rbp
    2620:	e9 4a ff ff ff       	jmpq   256f <urlencode+0x3a>
    2625:	b8 ff ff ff ff       	mov    $0xffffffff,%eax
    262a:	48 8b 74 24 08       	mov    0x8(%rsp),%rsi
    262f:	64 48 33 34 25 28 00 	xor    %fs:0x28,%rsi
    2636:	00 00 
    2638:	75 09                	jne    2643 <urlencode+0x10e>
    263a:	48 83 c4 10          	add    $0x10,%rsp
    263e:	5b                   	pop    %rbx
    263f:	5d                   	pop    %rbp
    2640:	41 5c                	pop    %r12
    2642:	c3                   	retq   
    2643:	e8 b8 e7 ff ff       	callq  e00 <__stack_chk_fail@plt>

0000000000002648 <submitr>:
    2648:	41 57                	push   %r15
    264a:	41 56                	push   %r14
    264c:	41 55                	push   %r13
    264e:	41 54                	push   %r12
    2650:	55                   	push   %rbp
    2651:	53                   	push   %rbx
    2652:	48 81 ec 68 a0 00 00 	sub    $0xa068,%rsp
    2659:	49 89 fd             	mov    %rdi,%r13
    265c:	89 74 24 14          	mov    %esi,0x14(%rsp)
    2660:	49 89 d7             	mov    %rdx,%r15
    2663:	48 89 4c 24 08       	mov    %rcx,0x8(%rsp)
    2668:	4c 89 44 24 18       	mov    %r8,0x18(%rsp)
    266d:	4d 89 ce             	mov    %r9,%r14
    2670:	48 8b ac 24 a0 a0 00 	mov    0xa0a0(%rsp),%rbp
    2677:	00 
    2678:	64 48 8b 04 25 28 00 	mov    %fs:0x28,%rax
    267f:	00 00 
    2681:	48 89 84 24 58 a0 00 	mov    %rax,0xa058(%rsp)
    2688:	00 
    2689:	31 c0                	xor    %eax,%eax
    268b:	c7 44 24 2c 00 00 00 	movl   $0x0,0x2c(%rsp)
    2692:	00 
    2693:	ba 00 00 00 00       	mov    $0x0,%edx
    2698:	be 01 00 00 00       	mov    $0x1,%esi
    269d:	bf 02 00 00 00       	mov    $0x2,%edi
    26a2:	e8 d9 e8 ff ff       	callq  f80 <socket@plt>
    26a7:	85 c0                	test   %eax,%eax
    26a9:	0f 88 a9 02 00 00    	js     2958 <submitr+0x310>
    26af:	89 c3                	mov    %eax,%ebx
    26b1:	4c 89 ef             	mov    %r13,%rdi
    26b4:	e8 b7 e7 ff ff       	callq  e70 <gethostbyname@plt>
    26b9:	48 85 c0             	test   %rax,%rax
    26bc:	0f 84 e2 02 00 00    	je     29a4 <submitr+0x35c>
    26c2:	4c 8d 64 24 30       	lea    0x30(%rsp),%r12
    26c7:	48 c7 44 24 32 00 00 	movq   $0x0,0x32(%rsp)
    26ce:	00 00 
    26d0:	c7 44 24 3a 00 00 00 	movl   $0x0,0x3a(%rsp)
    26d7:	00 
    26d8:	66 c7 44 24 3e 00 00 	movw   $0x0,0x3e(%rsp)
    26df:	66 c7 44 24 30 02 00 	movw   $0x2,0x30(%rsp)
    26e6:	48 63 50 14          	movslq 0x14(%rax),%rdx
    26ea:	48 8b 40 18          	mov    0x18(%rax),%rax
    26ee:	48 8b 30             	mov    (%rax),%rsi
    26f1:	48 8d 7c 24 34       	lea    0x34(%rsp),%rdi
    26f6:	b9 0c 00 00 00       	mov    $0xc,%ecx
    26fb:	e8 80 e7 ff ff       	callq  e80 <__memmove_chk@plt>
    2700:	0f b7 44 24 14       	movzwl 0x14(%rsp),%eax
    2705:	66 c1 c8 08          	ror    $0x8,%ax
    2709:	66 89 44 24 32       	mov    %ax,0x32(%rsp)
    270e:	ba 10 00 00 00       	mov    $0x10,%edx
    2713:	4c 89 e6             	mov    %r12,%rsi
    2716:	89 df                	mov    %ebx,%edi
    2718:	e8 33 e8 ff ff       	callq  f50 <connect@plt>
    271d:	85 c0                	test   %eax,%eax
    271f:	0f 88 e7 02 00 00    	js     2a0c <submitr+0x3c4>
    2725:	48 c7 c6 ff ff ff ff 	mov    $0xffffffffffffffff,%rsi
    272c:	b8 00 00 00 00       	mov    $0x0,%eax
    2731:	48 89 f1             	mov    %rsi,%rcx
    2734:	4c 89 f7             	mov    %r14,%rdi
    2737:	f2 ae                	repnz scas %es:(%rdi),%al
    2739:	48 89 ca             	mov    %rcx,%rdx
    273c:	48 f7 d2             	not    %rdx
    273f:	48 89 f1             	mov    %rsi,%rcx
    2742:	4c 89 ff             	mov    %r15,%rdi
    2745:	f2 ae                	repnz scas %es:(%rdi),%al
    2747:	48 f7 d1             	not    %rcx
    274a:	49 89 c8             	mov    %rcx,%r8
    274d:	48 89 f1             	mov    %rsi,%rcx
    2750:	48 8b 7c 24 08       	mov    0x8(%rsp),%rdi
    2755:	f2 ae                	repnz scas %es:(%rdi),%al
    2757:	48 f7 d1             	not    %rcx
    275a:	4d 8d 44 08 fe       	lea    -0x2(%r8,%rcx,1),%r8
    275f:	48 89 f1             	mov    %rsi,%rcx
    2762:	48 8b 7c 24 18       	mov    0x18(%rsp),%rdi
    2767:	f2 ae                	repnz scas %es:(%rdi),%al
    2769:	48 89 c8             	mov    %rcx,%rax
    276c:	48 f7 d0             	not    %rax
    276f:	49 8d 4c 00 ff       	lea    -0x1(%r8,%rax,1),%rcx
    2774:	48 8d 44 52 fd       	lea    -0x3(%rdx,%rdx,2),%rax
    2779:	48 8d 84 01 80 00 00 	lea    0x80(%rcx,%rax,1),%rax
    2780:	00 
    2781:	48 3d 00 20 00 00    	cmp    $0x2000,%rax
    2787:	0f 87 d9 02 00 00    	ja     2a66 <submitr+0x41e>
    278d:	48 8d b4 24 50 40 00 	lea    0x4050(%rsp),%rsi
    2794:	00 
    2795:	b9 00 04 00 00       	mov    $0x400,%ecx
    279a:	b8 00 00 00 00       	mov    $0x0,%eax
    279f:	48 89 f7             	mov    %rsi,%rdi
    27a2:	f3 48 ab             	rep stos %rax,%es:(%rdi)
    27a5:	4c 89 f7             	mov    %r14,%rdi
    27a8:	e8 88 fd ff ff       	callq  2535 <urlencode>
    27ad:	85 c0                	test   %eax,%eax
    27af:	0f 88 24 03 00 00    	js     2ad9 <submitr+0x491>
    27b5:	4c 8d a4 24 50 20 00 	lea    0x2050(%rsp),%r12
    27bc:	00 
    27bd:	41 55                	push   %r13
    27bf:	48 8d 84 24 58 40 00 	lea    0x4058(%rsp),%rax
    27c6:	00 
    27c7:	50                   	push   %rax
    27c8:	4d 89 f9             	mov    %r15,%r9
    27cb:	4c 8b 44 24 18       	mov    0x18(%rsp),%r8
    27d0:	48 8d 0d 41 10 00 00 	lea    0x1041(%rip),%rcx        # 3818 <trans_char+0x38>
    27d7:	ba 00 20 00 00       	mov    $0x2000,%edx
    27dc:	be 01 00 00 00       	mov    $0x1,%esi
    27e1:	4c 89 e7             	mov    %r12,%rdi
    27e4:	b8 00 00 00 00       	mov    $0x0,%eax
    27e9:	e8 82 e7 ff ff       	callq  f70 <__sprintf_chk@plt>
    27ee:	48 c7 c1 ff ff ff ff 	mov    $0xffffffffffffffff,%rcx
    27f5:	b8 00 00 00 00       	mov    $0x0,%eax
    27fa:	4c 89 e7             	mov    %r12,%rdi
    27fd:	f2 ae                	repnz scas %es:(%rdi),%al
    27ff:	48 89 ca             	mov    %rcx,%rdx
    2802:	48 f7 d2             	not    %rdx
    2805:	48 8d 52 ff          	lea    -0x1(%rdx),%rdx
    2809:	4c 89 e6             	mov    %r12,%rsi
    280c:	89 df                	mov    %ebx,%edi
    280e:	e8 95 fb ff ff       	callq  23a8 <rio_writen>
    2813:	48 83 c4 10          	add    $0x10,%rsp
    2817:	48 85 c0             	test   %rax,%rax
    281a:	0f 88 44 03 00 00    	js     2b64 <submitr+0x51c>
    2820:	4c 8d 64 24 40       	lea    0x40(%rsp),%r12
    2825:	89 de                	mov    %ebx,%esi
    2827:	4c 89 e7             	mov    %r12,%rdi
    282a:	e8 37 fb ff ff       	callq  2366 <rio_readinitb>
    282f:	48 8d b4 24 50 20 00 	lea    0x2050(%rsp),%rsi
    2836:	00 
    2837:	ba 00 20 00 00       	mov    $0x2000,%edx
    283c:	4c 89 e7             	mov    %r12,%rdi
    283f:	e8 4d fc ff ff       	callq  2491 <rio_readlineb>
    2844:	48 85 c0             	test   %rax,%rax
    2847:	0f 8e 86 03 00 00    	jle    2bd3 <submitr+0x58b>
    284d:	48 8d 4c 24 2c       	lea    0x2c(%rsp),%rcx
    2852:	48 8d 94 24 50 60 00 	lea    0x6050(%rsp),%rdx
    2859:	00 
    285a:	48 8d bc 24 50 20 00 	lea    0x2050(%rsp),%rdi
    2861:	00 
    2862:	4c 8d 84 24 50 80 00 	lea    0x8050(%rsp),%r8
    2869:	00 
    286a:	48 8d 35 1e 10 00 00 	lea    0x101e(%rip),%rsi        # 388f <trans_char+0xaf>
    2871:	b8 00 00 00 00       	mov    $0x0,%eax
    2876:	e8 65 e6 ff ff       	callq  ee0 <__isoc99_sscanf@plt>
    287b:	48 8d b4 24 50 20 00 	lea    0x2050(%rsp),%rsi
    2882:	00 
    2883:	b9 03 00 00 00       	mov    $0x3,%ecx
    2888:	48 8d 3d 17 10 00 00 	lea    0x1017(%rip),%rdi        # 38a6 <trans_char+0xc6>
    288f:	f3 a6                	repz cmpsb %es:(%rdi),%ds:(%rsi)
    2891:	0f 97 c0             	seta   %al
    2894:	1c 00                	sbb    $0x0,%al
    2896:	84 c0                	test   %al,%al
    2898:	0f 84 b3 03 00 00    	je     2c51 <submitr+0x609>
    289e:	48 8d b4 24 50 20 00 	lea    0x2050(%rsp),%rsi
    28a5:	00 
    28a6:	48 8d 7c 24 40       	lea    0x40(%rsp),%rdi
    28ab:	ba 00 20 00 00       	mov    $0x2000,%edx
    28b0:	e8 dc fb ff ff       	callq  2491 <rio_readlineb>
    28b5:	48 85 c0             	test   %rax,%rax
    28b8:	7f c1                	jg     287b <submitr+0x233>
    28ba:	48 b8 45 72 72 6f 72 	movabs $0x43203a726f727245,%rax
    28c1:	3a 20 43 
    28c4:	48 ba 6c 69 65 6e 74 	movabs $0x6e7520746e65696c,%rdx
    28cb:	20 75 6e 
    28ce:	48 89 45 00          	mov    %rax,0x0(%rbp)
    28d2:	48 89 55 08          	mov    %rdx,0x8(%rbp)
    28d6:	48 b8 61 62 6c 65 20 	movabs $0x206f7420656c6261,%rax
    28dd:	74 6f 20 
    28e0:	48 ba 72 65 61 64 20 	movabs $0x6165682064616572,%rdx
    28e7:	68 65 61 
    28ea:	48 89 45 10          	mov    %rax,0x10(%rbp)
    28ee:	48 89 55 18          	mov    %rdx,0x18(%rbp)
    28f2:	48 b8 64 65 72 73 20 	movabs $0x6f72662073726564,%rax
    28f9:	66 72 6f 
    28fc:	48 ba 6d 20 74 68 65 	movabs $0x657220656874206d,%rdx
    2903:	20 72 65 
    2906:	48 89 45 20          	mov    %rax,0x20(%rbp)
    290a:	48 89 55 28          	mov    %rdx,0x28(%rbp)
    290e:	48 b8 73 75 6c 74 20 	movabs $0x72657320746c7573,%rax
    2915:	73 65 72 
    2918:	48 89 45 30          	mov    %rax,0x30(%rbp)
    291c:	c7 45 38 76 65 72 00 	movl   $0x726576,0x38(%rbp)
    2923:	89 df                	mov    %ebx,%edi
    2925:	e8 16 e5 ff ff       	callq  e40 <close@plt>
    292a:	b8 ff ff ff ff       	mov    $0xffffffff,%eax
    292f:	48 8b 9c 24 58 a0 00 	mov    0xa058(%rsp),%rbx
    2936:	00 
    2937:	64 48 33 1c 25 28 00 	xor    %fs:0x28,%rbx
    293e:	00 00 
    2940:	0f 85 7e 04 00 00    	jne    2dc4 <submitr+0x77c>
    2946:	48 81 c4 68 a0 00 00 	add    $0xa068,%rsp
    294d:	5b                   	pop    %rbx
    294e:	5d                   	pop    %rbp
    294f:	41 5c                	pop    %r12
    2951:	41 5d                	pop    %r13
    2953:	41 5e                	pop    %r14
    2955:	41 5f                	pop    %r15
    2957:	c3                   	retq   
    2958:	48 b8 45 72 72 6f 72 	movabs $0x43203a726f727245,%rax
    295f:	3a 20 43 
    2962:	48 ba 6c 69 65 6e 74 	movabs $0x6e7520746e65696c,%rdx
    2969:	20 75 6e 
    296c:	48 89 45 00          	mov    %rax,0x0(%rbp)
    2970:	48 89 55 08          	mov    %rdx,0x8(%rbp)
    2974:	48 b8 61 62 6c 65 20 	movabs $0x206f7420656c6261,%rax
    297b:	74 6f 20 
    297e:	48 ba 63 72 65 61 74 	movabs $0x7320657461657263,%rdx
    2985:	65 20 73 
    2988:	48 89 45 10          	mov    %rax,0x10(%rbp)
    298c:	48 89 55 18          	mov    %rdx,0x18(%rbp)
    2990:	c7 45 20 6f 63 6b 65 	movl   $0x656b636f,0x20(%rbp)
    2997:	66 c7 45 24 74 00    	movw   $0x74,0x24(%rbp)
    299d:	b8 ff ff ff ff       	mov    $0xffffffff,%eax
    29a2:	eb 8b                	jmp    292f <submitr+0x2e7>
    29a4:	48 b8 45 72 72 6f 72 	movabs $0x44203a726f727245,%rax
    29ab:	3a 20 44 
    29ae:	48 ba 4e 53 20 69 73 	movabs $0x6e7520736920534e,%rdx
    29b5:	20 75 6e 
    29b8:	48 89 45 00          	mov    %rax,0x0(%rbp)
    29bc:	48 89 55 08          	mov    %rdx,0x8(%rbp)
    29c0:	48 b8 61 62 6c 65 20 	movabs $0x206f7420656c6261,%rax
    29c7:	74 6f 20 
    29ca:	48 ba 72 65 73 6f 6c 	movabs $0x2065766c6f736572,%rdx
    29d1:	76 65 20 
    29d4:	48 89 45 10          	mov    %rax,0x10(%rbp)
    29d8:	48 89 55 18          	mov    %rdx,0x18(%rbp)
    29dc:	48 b8 73 65 72 76 65 	movabs $0x6120726576726573,%rax
    29e3:	72 20 61 
    29e6:	48 89 45 20          	mov    %rax,0x20(%rbp)
    29ea:	c7 45 28 64 64 72 65 	movl   $0x65726464,0x28(%rbp)
    29f1:	66 c7 45 2c 73 73    	movw   $0x7373,0x2c(%rbp)
    29f7:	c6 45 2e 00          	movb   $0x0,0x2e(%rbp)
    29fb:	89 df                	mov    %ebx,%edi
    29fd:	e8 3e e4 ff ff       	callq  e40 <close@plt>
    2a02:	b8 ff ff ff ff       	mov    $0xffffffff,%eax
    2a07:	e9 23 ff ff ff       	jmpq   292f <submitr+0x2e7>
    2a0c:	48 b8 45 72 72 6f 72 	movabs $0x55203a726f727245,%rax
    2a13:	3a 20 55 
    2a16:	48 ba 6e 61 62 6c 65 	movabs $0x6f7420656c62616e,%rdx
    2a1d:	20 74 6f 
    2a20:	48 89 45 00          	mov    %rax,0x0(%rbp)
    2a24:	48 89 55 08          	mov    %rdx,0x8(%rbp)
    2a28:	48 b8 20 63 6f 6e 6e 	movabs $0x7463656e6e6f6320,%rax
    2a2f:	65 63 74 
    2a32:	48 ba 20 74 6f 20 74 	movabs $0x20656874206f7420,%rdx
    2a39:	68 65 20 
    2a3c:	48 89 45 10          	mov    %rax,0x10(%rbp)
    2a40:	48 89 55 18          	mov    %rdx,0x18(%rbp)
    2a44:	c7 45 20 73 65 72 76 	movl   $0x76726573,0x20(%rbp)
    2a4b:	66 c7 45 24 65 72    	movw   $0x7265,0x24(%rbp)
    2a51:	c6 45 26 00          	movb   $0x0,0x26(%rbp)
    2a55:	89 df                	mov    %ebx,%edi
    2a57:	e8 e4 e3 ff ff       	callq  e40 <close@plt>
    2a5c:	b8 ff ff ff ff       	mov    $0xffffffff,%eax
    2a61:	e9 c9 fe ff ff       	jmpq   292f <submitr+0x2e7>
    2a66:	48 b8 45 72 72 6f 72 	movabs $0x52203a726f727245,%rax
    2a6d:	3a 20 52 
    2a70:	48 ba 65 73 75 6c 74 	movabs $0x747320746c757365,%rdx
    2a77:	20 73 74 
    2a7a:	48 89 45 00          	mov    %rax,0x0(%rbp)
    2a7e:	48 89 55 08          	mov    %rdx,0x8(%rbp)
    2a82:	48 b8 72 69 6e 67 20 	movabs $0x6f6f7420676e6972,%rax
    2a89:	74 6f 6f 
    2a8c:	48 ba 20 6c 61 72 67 	movabs $0x202e656772616c20,%rdx
    2a93:	65 2e 20 
    2a96:	48 89 45 10          	mov    %rax,0x10(%rbp)
    2a9a:	48 89 55 18          	mov    %rdx,0x18(%rbp)
    2a9e:	48 b8 49 6e 63 72 65 	movabs $0x6573616572636e49,%rax
    2aa5:	61 73 65 
    2aa8:	48 ba 20 53 55 42 4d 	movabs $0x5254494d42555320,%rdx
    2aaf:	49 54 52 
    2ab2:	48 89 45 20          	mov    %rax,0x20(%rbp)
    2ab6:	48 89 55 28          	mov    %rdx,0x28(%rbp)
    2aba:	48 b8 5f 4d 41 58 42 	movabs $0x46554258414d5f,%rax
    2ac1:	55 46 00 
    2ac4:	48 89 45 30          	mov    %rax,0x30(%rbp)
    2ac8:	89 df                	mov    %ebx,%edi
    2aca:	e8 71 e3 ff ff       	callq  e40 <close@plt>
    2acf:	b8 ff ff ff ff       	mov    $0xffffffff,%eax
    2ad4:	e9 56 fe ff ff       	jmpq   292f <submitr+0x2e7>
    2ad9:	48 b8 45 72 72 6f 72 	movabs $0x52203a726f727245,%rax
    2ae0:	3a 20 52 
    2ae3:	48 ba 65 73 75 6c 74 	movabs $0x747320746c757365,%rdx
    2aea:	20 73 74 
    2aed:	48 89 45 00          	mov    %rax,0x0(%rbp)
    2af1:	48 89 55 08          	mov    %rdx,0x8(%rbp)
    2af5:	48 b8 72 69 6e 67 20 	movabs $0x6e6f6320676e6972,%rax
    2afc:	63 6f 6e 
    2aff:	48 ba 74 61 69 6e 73 	movabs $0x6e6120736e696174,%rdx
    2b06:	20 61 6e 
    2b09:	48 89 45 10          	mov    %rax,0x10(%rbp)
    2b0d:	48 89 55 18          	mov    %rdx,0x18(%rbp)
    2b11:	48 b8 20 69 6c 6c 65 	movabs $0x6c6167656c6c6920,%rax
    2b18:	67 61 6c 
    2b1b:	48 ba 20 6f 72 20 75 	movabs $0x72706e7520726f20,%rdx
    2b22:	6e 70 72 
    2b25:	48 89 45 20          	mov    %rax,0x20(%rbp)
    2b29:	48 89 55 28          	mov    %rdx,0x28(%rbp)
    2b2d:	48 b8 69 6e 74 61 62 	movabs $0x20656c6261746e69,%rax
    2b34:	6c 65 20 
    2b37:	48 ba 63 68 61 72 61 	movabs $0x6574636172616863,%rdx
    2b3e:	63 74 65 
    2b41:	48 89 45 30          	mov    %rax,0x30(%rbp)
    2b45:	48 89 55 38          	mov    %rdx,0x38(%rbp)
    2b49:	66 c7 45 40 72 2e    	movw   $0x2e72,0x40(%rbp)
    2b4f:	c6 45 42 00          	movb   $0x0,0x42(%rbp)
    2b53:	89 df                	mov    %ebx,%edi
    2b55:	e8 e6 e2 ff ff       	callq  e40 <close@plt>
    2b5a:	b8 ff ff ff ff       	mov    $0xffffffff,%eax
    2b5f:	e9 cb fd ff ff       	jmpq   292f <submitr+0x2e7>
    2b64:	48 b8 45 72 72 6f 72 	movabs $0x43203a726f727245,%rax
    2b6b:	3a 20 43 
    2b6e:	48 ba 6c 69 65 6e 74 	movabs $0x6e7520746e65696c,%rdx
    2b75:	20 75 6e 
    2b78:	48 89 45 00          	mov    %rax,0x0(%rbp)
    2b7c:	48 89 55 08          	mov    %rdx,0x8(%rbp)
    2b80:	48 b8 61 62 6c 65 20 	movabs $0x206f7420656c6261,%rax
    2b87:	74 6f 20 
    2b8a:	48 ba 77 72 69 74 65 	movabs $0x6f74206574697277,%rdx
    2b91:	20 74 6f 
    2b94:	48 89 45 10          	mov    %rax,0x10(%rbp)
    2b98:	48 89 55 18          	mov    %rdx,0x18(%rbp)
    2b9c:	48 b8 20 74 68 65 20 	movabs $0x7365722065687420,%rax
    2ba3:	72 65 73 
    2ba6:	48 ba 75 6c 74 20 73 	movabs $0x7672657320746c75,%rdx
    2bad:	65 72 76 
    2bb0:	48 89 45 20          	mov    %rax,0x20(%rbp)
    2bb4:	48 89 55 28          	mov    %rdx,0x28(%rbp)
    2bb8:	66 c7 45 30 65 72    	movw   $0x7265,0x30(%rbp)
    2bbe:	c6 45 32 00          	movb   $0x0,0x32(%rbp)
    2bc2:	89 df                	mov    %ebx,%edi
    2bc4:	e8 77 e2 ff ff       	callq  e40 <close@plt>
    2bc9:	b8 ff ff ff ff       	mov    $0xffffffff,%eax
    2bce:	e9 5c fd ff ff       	jmpq   292f <submitr+0x2e7>
    2bd3:	48 b8 45 72 72 6f 72 	movabs $0x43203a726f727245,%rax
    2bda:	3a 20 43 
    2bdd:	48 ba 6c 69 65 6e 74 	movabs $0x6e7520746e65696c,%rdx
    2be4:	20 75 6e 
    2be7:	48 89 45 00          	mov    %rax,0x0(%rbp)
    2beb:	48 89 55 08          	mov    %rdx,0x8(%rbp)
    2bef:	48 b8 61 62 6c 65 20 	movabs $0x206f7420656c6261,%rax
    2bf6:	74 6f 20 
    2bf9:	48 ba 72 65 61 64 20 	movabs $0x7269662064616572,%rdx
    2c00:	66 69 72 
    2c03:	48 89 45 10          	mov    %rax,0x10(%rbp)
    2c07:	48 89 55 18          	mov    %rdx,0x18(%rbp)
    2c0b:	48 b8 73 74 20 68 65 	movabs $0x6564616568207473,%rax
    2c12:	61 64 65 
    2c15:	48 ba 72 20 66 72 6f 	movabs $0x72206d6f72662072,%rdx
    2c1c:	6d 20 72 
    2c1f:	48 89 45 20          	mov    %rax,0x20(%rbp)
    2c23:	48 89 55 28          	mov    %rdx,0x28(%rbp)
    2c27:	48 b8 65 73 75 6c 74 	movabs $0x657320746c757365,%rax
    2c2e:	20 73 65 
    2c31:	48 89 45 30          	mov    %rax,0x30(%rbp)
    2c35:	c7 45 38 72 76 65 72 	movl   $0x72657672,0x38(%rbp)
    2c3c:	c6 45 3c 00          	movb   $0x0,0x3c(%rbp)
    2c40:	89 df                	mov    %ebx,%edi
    2c42:	e8 f9 e1 ff ff       	callq  e40 <close@plt>
    2c47:	b8 ff ff ff ff       	mov    $0xffffffff,%eax
    2c4c:	e9 de fc ff ff       	jmpq   292f <submitr+0x2e7>
    2c51:	48 8d b4 24 50 20 00 	lea    0x2050(%rsp),%rsi
    2c58:	00 
    2c59:	48 8d 7c 24 40       	lea    0x40(%rsp),%rdi
    2c5e:	ba 00 20 00 00       	mov    $0x2000,%edx
    2c63:	e8 29 f8 ff ff       	callq  2491 <rio_readlineb>
    2c68:	48 85 c0             	test   %rax,%rax
    2c6b:	0f 8e 96 00 00 00    	jle    2d07 <submitr+0x6bf>
    2c71:	44 8b 44 24 2c       	mov    0x2c(%rsp),%r8d
    2c76:	41 81 f8 c8 00 00 00 	cmp    $0xc8,%r8d
    2c7d:	0f 85 08 01 00 00    	jne    2d8b <submitr+0x743>
    2c83:	48 8d b4 24 50 20 00 	lea    0x2050(%rsp),%rsi
    2c8a:	00 
    2c8b:	48 89 ef             	mov    %rbp,%rdi
    2c8e:	e8 3d e1 ff ff       	callq  dd0 <strcpy@plt>
    2c93:	89 df                	mov    %ebx,%edi
    2c95:	e8 a6 e1 ff ff       	callq  e40 <close@plt>
    2c9a:	b9 04 00 00 00       	mov    $0x4,%ecx
    2c9f:	48 8d 3d fa 0b 00 00 	lea    0xbfa(%rip),%rdi        # 38a0 <trans_char+0xc0>
    2ca6:	48 89 ee             	mov    %rbp,%rsi
    2ca9:	f3 a6                	repz cmpsb %es:(%rdi),%ds:(%rsi)
    2cab:	0f 97 c0             	seta   %al
    2cae:	1c 00                	sbb    $0x0,%al
    2cb0:	0f be c0             	movsbl %al,%eax
    2cb3:	85 c0                	test   %eax,%eax
    2cb5:	0f 84 74 fc ff ff    	je     292f <submitr+0x2e7>
    2cbb:	b9 05 00 00 00       	mov    $0x5,%ecx
    2cc0:	48 8d 3d dd 0b 00 00 	lea    0xbdd(%rip),%rdi        # 38a4 <trans_char+0xc4>
    2cc7:	48 89 ee             	mov    %rbp,%rsi
    2cca:	f3 a6                	repz cmpsb %es:(%rdi),%ds:(%rsi)
    2ccc:	0f 97 c0             	seta   %al
    2ccf:	1c 00                	sbb    $0x0,%al
    2cd1:	0f be c0             	movsbl %al,%eax
    2cd4:	85 c0                	test   %eax,%eax
    2cd6:	0f 84 53 fc ff ff    	je     292f <submitr+0x2e7>
    2cdc:	b9 03 00 00 00       	mov    $0x3,%ecx
    2ce1:	48 8d 3d c1 0b 00 00 	lea    0xbc1(%rip),%rdi        # 38a9 <trans_char+0xc9>
    2ce8:	48 89 ee             	mov    %rbp,%rsi
    2ceb:	f3 a6                	repz cmpsb %es:(%rdi),%ds:(%rsi)
    2ced:	0f 97 c0             	seta   %al
    2cf0:	1c 00                	sbb    $0x0,%al
    2cf2:	0f be c0             	movsbl %al,%eax
    2cf5:	85 c0                	test   %eax,%eax
    2cf7:	0f 84 32 fc ff ff    	je     292f <submitr+0x2e7>
    2cfd:	b8 ff ff ff ff       	mov    $0xffffffff,%eax
    2d02:	e9 28 fc ff ff       	jmpq   292f <submitr+0x2e7>
    2d07:	48 b8 45 72 72 6f 72 	movabs $0x43203a726f727245,%rax
    2d0e:	3a 20 43 
    2d11:	48 ba 6c 69 65 6e 74 	movabs $0x6e7520746e65696c,%rdx
    2d18:	20 75 6e 
    2d1b:	48 89 45 00          	mov    %rax,0x0(%rbp)
    2d1f:	48 89 55 08          	mov    %rdx,0x8(%rbp)
    2d23:	48 b8 61 62 6c 65 20 	movabs $0x206f7420656c6261,%rax
    2d2a:	74 6f 20 
    2d2d:	48 ba 72 65 61 64 20 	movabs $0x6174732064616572,%rdx
    2d34:	73 74 61 
    2d37:	48 89 45 10          	mov    %rax,0x10(%rbp)
    2d3b:	48 89 55 18          	mov    %rdx,0x18(%rbp)
    2d3f:	48 b8 74 75 73 20 6d 	movabs $0x7373656d20737574,%rax
    2d46:	65 73 73 
    2d49:	48 ba 61 67 65 20 66 	movabs $0x6d6f726620656761,%rdx
    2d50:	72 6f 6d 
    2d53:	48 89 45 20          	mov    %rax,0x20(%rbp)
    2d57:	48 89 55 28          	mov    %rdx,0x28(%rbp)
    2d5b:	48 b8 20 72 65 73 75 	movabs $0x20746c7573657220,%rax
    2d62:	6c 74 20 
    2d65:	48 89 45 30          	mov    %rax,0x30(%rbp)
    2d69:	c7 45 38 73 65 72 76 	movl   $0x76726573,0x38(%rbp)
    2d70:	66 c7 45 3c 65 72    	movw   $0x7265,0x3c(%rbp)
    2d76:	c6 45 3e 00          	movb   $0x0,0x3e(%rbp)
    2d7a:	89 df                	mov    %ebx,%edi
    2d7c:	e8 bf e0 ff ff       	callq  e40 <close@plt>
    2d81:	b8 ff ff ff ff       	mov    $0xffffffff,%eax
    2d86:	e9 a4 fb ff ff       	jmpq   292f <submitr+0x2e7>
    2d8b:	4c 8d 8c 24 50 80 00 	lea    0x8050(%rsp),%r9
    2d92:	00 
    2d93:	48 8d 0d be 0a 00 00 	lea    0xabe(%rip),%rcx        # 3858 <trans_char+0x78>
    2d9a:	48 c7 c2 ff ff ff ff 	mov    $0xffffffffffffffff,%rdx
    2da1:	be 01 00 00 00       	mov    $0x1,%esi
    2da6:	48 89 ef             	mov    %rbp,%rdi
    2da9:	b8 00 00 00 00       	mov    $0x0,%eax
    2dae:	e8 bd e1 ff ff       	callq  f70 <__sprintf_chk@plt>
    2db3:	89 df                	mov    %ebx,%edi
    2db5:	e8 86 e0 ff ff       	callq  e40 <close@plt>
    2dba:	b8 ff ff ff ff       	mov    $0xffffffff,%eax
    2dbf:	e9 6b fb ff ff       	jmpq   292f <submitr+0x2e7>
    2dc4:	e8 37 e0 ff ff       	callq  e00 <__stack_chk_fail@plt>

0000000000002dc9 <init_timeout>:
    2dc9:	85 ff                	test   %edi,%edi
    2dcb:	74 28                	je     2df5 <init_timeout+0x2c>
    2dcd:	53                   	push   %rbx
    2dce:	89 fb                	mov    %edi,%ebx
    2dd0:	85 ff                	test   %edi,%edi
    2dd2:	78 1a                	js     2dee <init_timeout+0x25>
    2dd4:	48 8d 35 9d f5 ff ff 	lea    -0xa63(%rip),%rsi        # 2378 <sigalrm_handler>
    2ddb:	bf 0e 00 00 00       	mov    $0xe,%edi
    2de0:	e8 7b e0 ff ff       	callq  e60 <signal@plt>
    2de5:	89 df                	mov    %ebx,%edi
    2de7:	e8 44 e0 ff ff       	callq  e30 <alarm@plt>
    2dec:	5b                   	pop    %rbx
    2ded:	c3                   	retq   
    2dee:	bb 00 00 00 00       	mov    $0x0,%ebx
    2df3:	eb df                	jmp    2dd4 <init_timeout+0xb>
    2df5:	f3 c3                	repz retq 

0000000000002df7 <init_driver>:
    2df7:	41 54                	push   %r12
    2df9:	55                   	push   %rbp
    2dfa:	53                   	push   %rbx
    2dfb:	48 83 ec 20          	sub    $0x20,%rsp
    2dff:	49 89 fc             	mov    %rdi,%r12
    2e02:	64 48 8b 04 25 28 00 	mov    %fs:0x28,%rax
    2e09:	00 00 
    2e0b:	48 89 44 24 18       	mov    %rax,0x18(%rsp)
    2e10:	31 c0                	xor    %eax,%eax
    2e12:	be 01 00 00 00       	mov    $0x1,%esi
    2e17:	bf 0d 00 00 00       	mov    $0xd,%edi
    2e1c:	e8 3f e0 ff ff       	callq  e60 <signal@plt>
    2e21:	be 01 00 00 00       	mov    $0x1,%esi
    2e26:	bf 1d 00 00 00       	mov    $0x1d,%edi
    2e2b:	e8 30 e0 ff ff       	callq  e60 <signal@plt>
    2e30:	be 01 00 00 00       	mov    $0x1,%esi
    2e35:	bf 1d 00 00 00       	mov    $0x1d,%edi
    2e3a:	e8 21 e0 ff ff       	callq  e60 <signal@plt>
    2e3f:	ba 00 00 00 00       	mov    $0x0,%edx
    2e44:	be 01 00 00 00       	mov    $0x1,%esi
    2e49:	bf 02 00 00 00       	mov    $0x2,%edi
    2e4e:	e8 2d e1 ff ff       	callq  f80 <socket@plt>
    2e53:	85 c0                	test   %eax,%eax
    2e55:	0f 88 a3 00 00 00    	js     2efe <init_driver+0x107>
    2e5b:	89 c3                	mov    %eax,%ebx
    2e5d:	48 8d 3d 6c 05 00 00 	lea    0x56c(%rip),%rdi        # 33d0 <_IO_stdin_used+0x260>
    2e64:	e8 07 e0 ff ff       	callq  e70 <gethostbyname@plt>
    2e69:	48 85 c0             	test   %rax,%rax
    2e6c:	0f 84 df 00 00 00    	je     2f51 <init_driver+0x15a>
    2e72:	48 89 e5             	mov    %rsp,%rbp
    2e75:	48 c7 44 24 02 00 00 	movq   $0x0,0x2(%rsp)
    2e7c:	00 00 
    2e7e:	c7 45 0a 00 00 00 00 	movl   $0x0,0xa(%rbp)
    2e85:	66 c7 45 0e 00 00    	movw   $0x0,0xe(%rbp)
    2e8b:	66 c7 04 24 02 00    	movw   $0x2,(%rsp)
    2e91:	48 63 50 14          	movslq 0x14(%rax),%rdx
    2e95:	48 8b 40 18          	mov    0x18(%rax),%rax
    2e99:	48 8b 30             	mov    (%rax),%rsi
    2e9c:	48 8d 7d 04          	lea    0x4(%rbp),%rdi
    2ea0:	b9 0c 00 00 00       	mov    $0xc,%ecx
    2ea5:	e8 d6 df ff ff       	callq  e80 <__memmove_chk@plt>
    2eaa:	66 c7 44 24 02 3c 9a 	movw   $0x9a3c,0x2(%rsp)
    2eb1:	ba 10 00 00 00       	mov    $0x10,%edx
    2eb6:	48 89 ee             	mov    %rbp,%rsi
    2eb9:	89 df                	mov    %ebx,%edi
    2ebb:	e8 90 e0 ff ff       	callq  f50 <connect@plt>
    2ec0:	85 c0                	test   %eax,%eax
    2ec2:	0f 88 fb 00 00 00    	js     2fc3 <init_driver+0x1cc>
    2ec8:	89 df                	mov    %ebx,%edi
    2eca:	e8 71 df ff ff       	callq  e40 <close@plt>
    2ecf:	66 41 c7 04 24 4f 4b 	movw   $0x4b4f,(%r12)
    2ed6:	41 c6 44 24 02 00    	movb   $0x0,0x2(%r12)
    2edc:	b8 00 00 00 00       	mov    $0x0,%eax
    2ee1:	48 8b 4c 24 18       	mov    0x18(%rsp),%rcx
    2ee6:	64 48 33 0c 25 28 00 	xor    %fs:0x28,%rcx
    2eed:	00 00 
    2eef:	0f 85 28 01 00 00    	jne    301d <init_driver+0x226>
    2ef5:	48 83 c4 20          	add    $0x20,%rsp
    2ef9:	5b                   	pop    %rbx
    2efa:	5d                   	pop    %rbp
    2efb:	41 5c                	pop    %r12
    2efd:	c3                   	retq   
    2efe:	48 b8 45 72 72 6f 72 	movabs $0x43203a726f727245,%rax
    2f05:	3a 20 43 
    2f08:	48 ba 6c 69 65 6e 74 	movabs $0x6e7520746e65696c,%rdx
    2f0f:	20 75 6e 
    2f12:	49 89 04 24          	mov    %rax,(%r12)
    2f16:	49 89 54 24 08       	mov    %rdx,0x8(%r12)
    2f1b:	48 b8 61 62 6c 65 20 	movabs $0x206f7420656c6261,%rax
    2f22:	74 6f 20 
    2f25:	48 ba 63 72 65 61 74 	movabs $0x7320657461657263,%rdx
    2f2c:	65 20 73 
    2f2f:	49 89 44 24 10       	mov    %rax,0x10(%r12)
    2f34:	49 89 54 24 18       	mov    %rdx,0x18(%r12)
    2f39:	41 c7 44 24 20 6f 63 	movl   $0x656b636f,0x20(%r12)
    2f40:	6b 65 
    2f42:	66 41 c7 44 24 24 74 	movw   $0x74,0x24(%r12)
    2f49:	00 
    2f4a:	b8 ff ff ff ff       	mov    $0xffffffff,%eax
    2f4f:	eb 90                	jmp    2ee1 <init_driver+0xea>
    2f51:	48 b8 45 72 72 6f 72 	movabs $0x44203a726f727245,%rax
    2f58:	3a 20 44 
    2f5b:	48 ba 4e 53 20 69 73 	movabs $0x6e7520736920534e,%rdx
    2f62:	20 75 6e 
    2f65:	49 89 04 24          	mov    %rax,(%r12)
    2f69:	49 89 54 24 08       	mov    %rdx,0x8(%r12)
    2f6e:	48 b8 61 62 6c 65 20 	movabs $0x206f7420656c6261,%rax
    2f75:	74 6f 20 
    2f78:	48 ba 72 65 73 6f 6c 	movabs $0x2065766c6f736572,%rdx
    2f7f:	76 65 20 
    2f82:	49 89 44 24 10       	mov    %rax,0x10(%r12)
    2f87:	49 89 54 24 18       	mov    %rdx,0x18(%r12)
    2f8c:	48 b8 73 65 72 76 65 	movabs $0x6120726576726573,%rax
    2f93:	72 20 61 
    2f96:	49 89 44 24 20       	mov    %rax,0x20(%r12)
    2f9b:	41 c7 44 24 28 64 64 	movl   $0x65726464,0x28(%r12)
    2fa2:	72 65 
    2fa4:	66 41 c7 44 24 2c 73 	movw   $0x7373,0x2c(%r12)
    2fab:	73 
    2fac:	41 c6 44 24 2e 00    	movb   $0x0,0x2e(%r12)
    2fb2:	89 df                	mov    %ebx,%edi
    2fb4:	e8 87 de ff ff       	callq  e40 <close@plt>
    2fb9:	b8 ff ff ff ff       	mov    $0xffffffff,%eax
    2fbe:	e9 1e ff ff ff       	jmpq   2ee1 <init_driver+0xea>
    2fc3:	48 b8 45 72 72 6f 72 	movabs $0x55203a726f727245,%rax
    2fca:	3a 20 55 
    2fcd:	48 ba 6e 61 62 6c 65 	movabs $0x6f7420656c62616e,%rdx
    2fd4:	20 74 6f 
    2fd7:	49 89 04 24          	mov    %rax,(%r12)
    2fdb:	49 89 54 24 08       	mov    %rdx,0x8(%r12)
    2fe0:	48 b8 20 63 6f 6e 6e 	movabs $0x7463656e6e6f6320,%rax
    2fe7:	65 63 74 
    2fea:	48 ba 20 74 6f 20 73 	movabs $0x76726573206f7420,%rdx
    2ff1:	65 72 76 
    2ff4:	49 89 44 24 10       	mov    %rax,0x10(%r12)
    2ff9:	49 89 54 24 18       	mov    %rdx,0x18(%r12)
    2ffe:	66 41 c7 44 24 20 65 	movw   $0x7265,0x20(%r12)
    3005:	72 
    3006:	41 c6 44 24 22 00    	movb   $0x0,0x22(%r12)
    300c:	89 df                	mov    %ebx,%edi
    300e:	e8 2d de ff ff       	callq  e40 <close@plt>
    3013:	b8 ff ff ff ff       	mov    $0xffffffff,%eax
    3018:	e9 c4 fe ff ff       	jmpq   2ee1 <init_driver+0xea>
    301d:	e8 de dd ff ff       	callq  e00 <__stack_chk_fail@plt>

0000000000003022 <driver_post>:
    3022:	53                   	push   %rbx
    3023:	4c 89 cb             	mov    %r9,%rbx
    3026:	45 85 c0             	test   %r8d,%r8d
    3029:	75 18                	jne    3043 <driver_post+0x21>
    302b:	48 85 ff             	test   %rdi,%rdi
    302e:	74 05                	je     3035 <driver_post+0x13>
    3030:	80 3f 00             	cmpb   $0x0,(%rdi)
    3033:	75 37                	jne    306c <driver_post+0x4a>
    3035:	66 c7 03 4f 4b       	movw   $0x4b4f,(%rbx)
    303a:	c6 43 02 00          	movb   $0x0,0x2(%rbx)
    303e:	44 89 c0             	mov    %r8d,%eax
    3041:	5b                   	pop    %rbx
    3042:	c3                   	retq   
    3043:	48 89 ca             	mov    %rcx,%rdx
    3046:	48 8d 35 5f 08 00 00 	lea    0x85f(%rip),%rsi        # 38ac <trans_char+0xcc>
    304d:	bf 01 00 00 00       	mov    $0x1,%edi
    3052:	b8 00 00 00 00       	mov    $0x0,%eax
    3057:	e8 a4 de ff ff       	callq  f00 <__printf_chk@plt>
    305c:	66 c7 03 4f 4b       	movw   $0x4b4f,(%rbx)
    3061:	c6 43 02 00          	movb   $0x0,0x2(%rbx)
    3065:	b8 00 00 00 00       	mov    $0x0,%eax
    306a:	eb d5                	jmp    3041 <driver_post+0x1f>
    306c:	48 83 ec 08          	sub    $0x8,%rsp
    3070:	41 51                	push   %r9
    3072:	49 89 c9             	mov    %rcx,%r9
    3075:	49 89 d0             	mov    %rdx,%r8
    3078:	48 89 f9             	mov    %rdi,%rcx
    307b:	48 89 f2             	mov    %rsi,%rdx
    307e:	be 9a 3c 00 00       	mov    $0x3c9a,%esi
    3083:	48 8d 3d 46 03 00 00 	lea    0x346(%rip),%rdi        # 33d0 <_IO_stdin_used+0x260>
    308a:	e8 b9 f5 ff ff       	callq  2648 <submitr>
    308f:	48 83 c4 10          	add    $0x10,%rsp
    3093:	eb ac                	jmp    3041 <driver_post+0x1f>

0000000000003095 <check>:
    3095:	89 f8                	mov    %edi,%eax
    3097:	c1 e8 1c             	shr    $0x1c,%eax
    309a:	85 c0                	test   %eax,%eax
    309c:	74 1d                	je     30bb <check+0x26>
    309e:	b9 00 00 00 00       	mov    $0x0,%ecx
    30a3:	83 f9 1f             	cmp    $0x1f,%ecx
    30a6:	7f 0d                	jg     30b5 <check+0x20>
    30a8:	89 f8                	mov    %edi,%eax
    30aa:	d3 e8                	shr    %cl,%eax
    30ac:	3c 0a                	cmp    $0xa,%al
    30ae:	74 11                	je     30c1 <check+0x2c>
    30b0:	83 c1 08             	add    $0x8,%ecx
    30b3:	eb ee                	jmp    30a3 <check+0xe>
    30b5:	b8 01 00 00 00       	mov    $0x1,%eax
    30ba:	c3                   	retq   
    30bb:	b8 00 00 00 00       	mov    $0x0,%eax
    30c0:	c3                   	retq   
    30c1:	b8 00 00 00 00       	mov    $0x0,%eax
    30c6:	c3                   	retq   

00000000000030c7 <gencookie>:
    30c7:	53                   	push   %rbx
    30c8:	83 c7 01             	add    $0x1,%edi
    30cb:	e8 e0 dc ff ff       	callq  db0 <srandom@plt>
    30d0:	e8 eb dd ff ff       	callq  ec0 <random@plt>
    30d5:	89 c3                	mov    %eax,%ebx
    30d7:	89 c7                	mov    %eax,%edi
    30d9:	e8 b7 ff ff ff       	callq  3095 <check>
    30de:	85 c0                	test   %eax,%eax
    30e0:	74 ee                	je     30d0 <gencookie+0x9>
    30e2:	89 d8                	mov    %ebx,%eax
    30e4:	5b                   	pop    %rbx
    30e5:	c3                   	retq   
    30e6:	66 2e 0f 1f 84 00 00 	nopw   %cs:0x0(%rax,%rax,1)
    30ed:	00 00 00 

00000000000030f0 <__libc_csu_init>:
    30f0:	41 57                	push   %r15
    30f2:	41 56                	push   %r14
    30f4:	49 89 d7             	mov    %rdx,%r15
    30f7:	41 55                	push   %r13
    30f9:	41 54                	push   %r12
    30fb:	4c 8d 25 c6 1b 20 00 	lea    0x201bc6(%rip),%r12        # 204cc8 <__frame_dummy_init_array_entry>
    3102:	55                   	push   %rbp
    3103:	48 8d 2d c6 1b 20 00 	lea    0x201bc6(%rip),%rbp        # 204cd0 <__init_array_end>
    310a:	53                   	push   %rbx
    310b:	41 89 fd             	mov    %edi,%r13d
    310e:	49 89 f6             	mov    %rsi,%r14
    3111:	4c 29 e5             	sub    %r12,%rbp
    3114:	48 83 ec 08          	sub    $0x8,%rsp
    3118:	48 c1 fd 03          	sar    $0x3,%rbp
    311c:	e8 4f dc ff ff       	callq  d70 <_init>
    3121:	48 85 ed             	test   %rbp,%rbp
    3124:	74 20                	je     3146 <__libc_csu_init+0x56>
    3126:	31 db                	xor    %ebx,%ebx
    3128:	0f 1f 84 00 00 00 00 	nopl   0x0(%rax,%rax,1)
    312f:	00 
    3130:	4c 89 fa             	mov    %r15,%rdx
    3133:	4c 89 f6             	mov    %r14,%rsi
    3136:	44 89 ef             	mov    %r13d,%edi
    3139:	41 ff 14 dc          	callq  *(%r12,%rbx,8)
    313d:	48 83 c3 01          	add    $0x1,%rbx
    3141:	48 39 dd             	cmp    %rbx,%rbp
    3144:	75 ea                	jne    3130 <__libc_csu_init+0x40>
    3146:	48 83 c4 08          	add    $0x8,%rsp
    314a:	5b                   	pop    %rbx
    314b:	5d                   	pop    %rbp
    314c:	41 5c                	pop    %r12
    314e:	41 5d                	pop    %r13
    3150:	41 5e                	pop    %r14
    3152:	41 5f                	pop    %r15
    3154:	c3                   	retq   
    3155:	90                   	nop
    3156:	66 2e 0f 1f 84 00 00 	nopw   %cs:0x0(%rax,%rax,1)
    315d:	00 00 00 

0000000000003160 <__libc_csu_fini>:
    3160:	f3 c3                	repz retq 

Disassembly of section .fini:

0000000000003164 <_fini>:
    3164:	48 83 ec 08          	sub    $0x8,%rsp
    3168:	48 83 c4 08          	add    $0x8,%rsp
    316c:	c3                   	retq   
